---
triple:          'arm64-apple-darwin'
binary-path:     server
relocations:
  - { offsetInCU: 0x37, offset: 0x37, size: 0x8, addend: 0x0, symName: __ZL5g_map, symObjAddr: 0x436C8, symBinAddr: 0x100010000, symSize: 0x0 }
  - { offsetInCU: 0x80AD, offset: 0x80AD, size: 0x8, addend: 0x0, symName: __ZNSt3__1neB8ue170006IPP4ConnEEbRKNS_11__wrap_iterIT_EES8_, symObjAddr: 0x73C, symBinAddr: 0x100003B2C, symSize: 0x34 }
  - { offsetInCU: 0x80F0, offset: 0x80F0, size: 0x8, addend: 0x0, symName: __ZNSt3__112__to_addressB8ue170006IP4ConnEEPT_S4_, symObjAddr: 0x11E4, symBinAddr: 0x1000045D4, symSize: 0x14 }
  - { offsetInCU: 0x8125, offset: 0x8125, size: 0x8, addend: 0x0, symName: __ZNSt3__13maxB8ue170006ImEERKT_S3_S3_, symObjAddr: 0x13AC, symBinAddr: 0x10000479C, symSize: 0x2C }
  - { offsetInCU: 0x8168, offset: 0x8168, size: 0x8, addend: 0x0, symName: __ZNSt3__13minB8ue170006ImEERKT_S3_S3_, symObjAddr: 0x13D8, symBinAddr: 0x1000047C8, symSize: 0x2C }
  - { offsetInCU: 0x83AC, offset: 0x83AC, size: 0x8, addend: 0x0, symName: __ZNSt3__13minB8ue170006ImNS_6__lessIvvEEEERKT_S5_S5_T0_, symObjAddr: 0x1464, symBinAddr: 0x100004854, symSize: 0x54 }
  - { offsetInCU: 0x844B, offset: 0x844B, size: 0x8, addend: 0x0, symName: __ZNSt3__120__throw_length_errorB8ue170006EPKc, symObjAddr: 0x1540, symBinAddr: 0x100004930, symSize: 0x64 }
  - { offsetInCU: 0x8475, offset: 0x8475, size: 0x8, addend: 0x0, symName: __ZNSt3__13maxB8ue170006ImNS_6__lessIvvEEEERKT_S5_S5_T0_, symObjAddr: 0x1684, symBinAddr: 0x100004A74, symSize: 0x54 }
  - { offsetInCU: 0x84CF, offset: 0x84CF, size: 0x8, addend: 0x0, symName: __ZNSt3__119__allocate_at_leastB8ue170006INS_9allocatorIP4ConnEEEENS_19__allocation_resultINS_16allocator_traitsIT_E7pointerEEERS7_m, symObjAddr: 0x17E8, symBinAddr: 0x100004BD8, symSize: 0x40 }
  - { offsetInCU: 0x8512, offset: 0x8512, size: 0x8, addend: 0x0, symName: __ZNSt3__130__libcpp_is_constant_evaluatedB8ue170006Ev, symObjAddr: 0x19B4, symBinAddr: 0x100004DA4, symSize: 0xC }
  - { offsetInCU: 0x852F, offset: 0x852F, size: 0x8, addend: 0x0, symName: __ZNSt3__117__libcpp_allocateB8ue170006Emm, symObjAddr: 0x19C0, symBinAddr: 0x100004DB0, symSize: 0x28 }
  - { offsetInCU: 0x856C, offset: 0x856C, size: 0x8, addend: 0x0, symName: __ZNSt3__121__libcpp_operator_newB8ue170006IJmEEEPvDpT_, symObjAddr: 0x19E8, symBinAddr: 0x100004DD8, symSize: 0x24 }
  - { offsetInCU: 0x85A5, offset: 0x85A5, size: 0x8, addend: 0x0, symName: __ZNSt3__142__uninitialized_allocator_move_if_noexceptB8ue170006INS_9allocatorIP4ConnEENS_16reverse_iteratorIPS3_EES7_S3_vEET1_RT_T0_SB_S8_, symObjAddr: 0x1BF4, symBinAddr: 0x100004FE4, symSize: 0xE8 }
  - { offsetInCU: 0x8622, offset: 0x8622, size: 0x8, addend: 0x0, symName: __ZNSt3__14swapB8ue170006IPP4ConnEEvRT_S5_, symObjAddr: 0x1D28, symBinAddr: 0x100005118, symSize: 0x3C }
  - { offsetInCU: 0x8673, offset: 0x8673, size: 0x8, addend: 0x0, symName: __ZNSt3__1neB8ue170006IPP4ConnS3_EEbRKNS_16reverse_iteratorIT_EERKNS4_IT0_EE, symObjAddr: 0x1E58, symBinAddr: 0x100005248, symSize: 0x48 }
  - { offsetInCU: 0x86E4, offset: 0x86E4, size: 0x8, addend: 0x0, symName: __ZNSt3__114__construct_atB8ue170006IP4ConnJS2_EPS2_EEPT_S5_DpOT0_, symObjAddr: 0x1EA0, symBinAddr: 0x100005290, symSize: 0x2C }
  - { offsetInCU: 0x8754, offset: 0x8754, size: 0x8, addend: 0x0, symName: __ZNSt3__112__to_addressB8ue170006INS_16reverse_iteratorIPP4ConnEEvEEu7__decayIDTclsr19__to_address_helperIT_EE6__callclsr3stdE7declvalIRKS6_EEEEES8_, symObjAddr: 0x1ECC, symBinAddr: 0x1000052BC, symSize: 0x24 }
  - { offsetInCU: 0x878A, offset: 0x878A, size: 0x8, addend: 0x0, symName: __ZNSt3__14moveB8ue170006INS_16reverse_iteratorIPP4ConnEES5_EET0_T_S7_S6_, symObjAddr: 0x1F38, symBinAddr: 0x100005328, symSize: 0x78 }
  - { offsetInCU: 0x880D, offset: 0x880D, size: 0x8, addend: 0x0, symName: __ZNSt3__16__moveB8ue170006INS_17_ClassicAlgPolicyENS_16reverse_iteratorIPP4ConnEES6_S6_EENS_4pairIT0_T2_EES8_T1_S9_, symObjAddr: 0x2020, symBinAddr: 0x100005410, symSize: 0x64 }
  - { offsetInCU: 0x8879, offset: 0x8879, size: 0x8, addend: 0x0, symName: __ZNSt3__123__dispatch_copy_or_moveB8ue170006INS_17_ClassicAlgPolicyENS_11__move_loopIS1_EENS_14__move_trivialENS_16reverse_iteratorIPP4ConnEES9_S9_EENS_4pairIT2_T4_EESB_T3_SC_, symObjAddr: 0x2084, symBinAddr: 0x100005474, symSize: 0x64 }
  - { offsetInCU: 0x88F7, offset: 0x88F7, size: 0x8, addend: 0x0, symName: __ZNSt3__121__unwrap_and_dispatchB8ue170006INS_10__overloadINS_11__move_loopINS_17_ClassicAlgPolicyEEENS_14__move_trivialEEENS_16reverse_iteratorIPP4ConnEESB_SB_Li0EEENS_4pairIT0_T2_EESD_T1_SE_, symObjAddr: 0x20E8, symBinAddr: 0x1000054D8, symSize: 0x12C }
  - { offsetInCU: 0x8987, offset: 0x8987, size: 0x8, addend: 0x0, symName: __ZNSt3__114__unwrap_rangeB8ue170006INS_16reverse_iteratorIPP4ConnEES5_EENS_4pairIT0_S7_EET_S9_, symObjAddr: 0x2214, symBinAddr: 0x100005604, symSize: 0x84 }
  - { offsetInCU: 0x8ADB, offset: 0x8ADB, size: 0x8, addend: 0x0, symName: __ZNSt3__113__unwrap_iterB8ue170006INS_16reverse_iteratorIPP4ConnEENS_18__unwrap_iter_implIS5_Lb0EEELi0EEEDTclsrT0_8__unwrapclsr3stdE7declvalIT_EEEES9_, symObjAddr: 0x2338, symBinAddr: 0x100005728, symSize: 0x44 }
  - { offsetInCU: 0x8B1F, offset: 0x8B1F, size: 0x8, addend: 0x0, symName: __ZNSt3__19make_pairB8ue170006INS_16reverse_iteratorIPP4ConnEES5_EENS_4pairINS_18__unwrap_ref_decayIT_E4typeENS7_IT0_E4typeEEEOS8_OSB_, symObjAddr: 0x237C, symBinAddr: 0x10000576C, symSize: 0x38 }
  - { offsetInCU: 0x8B6E, offset: 0x8B6E, size: 0x8, addend: 0x0, symName: __ZNSt3__114__rewrap_rangeB8ue170006INS_16reverse_iteratorIPP4ConnEES5_EET_S6_T0_, symObjAddr: 0x23B4, symBinAddr: 0x1000057A4, symSize: 0x5C }
  - { offsetInCU: 0x8BBA, offset: 0x8BBA, size: 0x8, addend: 0x0, symName: __ZNSt3__113__rewrap_iterB8ue170006INS_16reverse_iteratorIPP4ConnEES5_NS_18__unwrap_iter_implIS5_Lb0EEEEET_S8_T0_, symObjAddr: 0x2410, symBinAddr: 0x100005800, symSize: 0x88 }
  - { offsetInCU: 0x8CC1, offset: 0x8CC1, size: 0x8, addend: 0x0, symName: __ZNSt3__119__libcpp_deallocateB8ue170006EPvmm, symObjAddr: 0x2838, symBinAddr: 0x100005C28, symSize: 0x30 }
  - { offsetInCU: 0x8D09, offset: 0x8D09, size: 0x8, addend: 0x0, symName: __ZNSt3__127__do_deallocate_handle_sizeB8ue170006IJEEEvPvmDpT_, symObjAddr: 0x2868, symBinAddr: 0x100005C58, symSize: 0x28 }
  - { offsetInCU: 0x8D47, offset: 0x8D47, size: 0x8, addend: 0x0, symName: __ZNSt3__124__libcpp_operator_deleteB8ue170006IJPvEEEvDpT_, symObjAddr: 0x2890, symBinAddr: 0x100005C80, symSize: 0x24 }
  - { offsetInCU: 0x8D7C, offset: 0x8D7C, size: 0x8, addend: 0x0, symName: __ZNSt3__112__to_addressB8ue170006IKcEEPT_S3_, symObjAddr: 0x398C, symBinAddr: 0x100006D7C, symSize: 0x14 }
  - { offsetInCU: 0x8E17, offset: 0x8E17, size: 0x8, addend: 0x0, symName: __ZNSt3__112__to_addressB8ue170006INS_12basic_stringIcNS_11char_traitsIcEENS_9allocatorIcEEEEEEPT_S8_, symObjAddr: 0x4028, symBinAddr: 0x100007418, symSize: 0x14 }
  - { offsetInCU: 0x8E4C, offset: 0x8E4C, size: 0x8, addend: 0x0, symName: __ZNSt3__119__allocate_at_leastB8ue170006INS_9allocatorINS_12basic_stringIcNS_11char_traitsIcEENS1_IcEEEEEEEENS_19__allocation_resultINS_16allocator_traitsIT_E7pointerEEERSA_m, symObjAddr: 0x4680, symBinAddr: 0x100007A70, symSize: 0x40 }
  - { offsetInCU: 0x8E8F, offset: 0x8E8F, size: 0x8, addend: 0x0, symName: __ZNSt3__142__uninitialized_allocator_move_if_noexceptB8ue170006INS_9allocatorINS_12basic_stringIcNS_11char_traitsIcEENS1_IcEEEEEENS_16reverse_iteratorIPS6_EESA_SA_EET2_RT_T0_T1_SB_, symObjAddr: 0x493C, symBinAddr: 0x100007D2C, symSize: 0x134 }
  - { offsetInCU: 0x8F2F, offset: 0x8F2F, size: 0x8, addend: 0x0, symName: __ZNSt3__14swapB8ue170006IPNS_12basic_stringIcNS_11char_traitsIcEENS_9allocatorIcEEEEEEvRT_S9_, symObjAddr: 0x4ABC, symBinAddr: 0x100007EAC, symSize: 0x3C }
  - { offsetInCU: 0x8F80, offset: 0x8F80, size: 0x8, addend: 0x0, symName: __ZNSt3__122__make_exception_guardB8ue170006INS_29_AllocatorDestroyRangeReverseINS_9allocatorINS_12basic_stringIcNS_11char_traitsIcEENS2_IcEEEEEENS_16reverse_iteratorIPS7_EEEEEENS_28__exception_guard_exceptionsIT_EESE_, symObjAddr: 0x4C08, symBinAddr: 0x100007FF8, symSize: 0x4C }
  - { offsetInCU: 0x8FB6, offset: 0x8FB6, size: 0x8, addend: 0x0, symName: __ZNSt3__1neB8ue170006IPNS_12basic_stringIcNS_11char_traitsIcEENS_9allocatorIcEEEES7_EEbRKNS_16reverse_iteratorIT_EERKNS8_IT0_EE, symObjAddr: 0x4C98, symBinAddr: 0x100008088, symSize: 0x48 }
  - { offsetInCU: 0x9002, offset: 0x9002, size: 0x8, addend: 0x0, symName: __ZNSt3__112__to_addressB8ue170006INS_16reverse_iteratorIPNS_12basic_stringIcNS_11char_traitsIcEENS_9allocatorIcEEEEEEvEEu7__decayIDTclsr19__to_address_helperIT_EE6__callclsr3stdE7declvalIRKSA_EEEEESC_, symObjAddr: 0x4D14, symBinAddr: 0x100008104, symSize: 0x24 }
  - { offsetInCU: 0x9061, offset: 0x9061, size: 0x8, addend: 0x0, symName: __ZNSt3__119__allocator_destroyB8ue170006INS_9allocatorINS_12basic_stringIcNS_11char_traitsIcEENS1_IcEEEEEENS_16reverse_iteratorINS8_IPS6_EEEESB_EEvRT_T0_T1_, symObjAddr: 0x5000, symBinAddr: 0x1000083F0, symSize: 0x70 }
  - { offsetInCU: 0x90C6, offset: 0x90C6, size: 0x8, addend: 0x0, symName: __ZNSt3__1neB8ue170006INS_16reverse_iteratorIPNS_12basic_stringIcNS_11char_traitsIcEENS_9allocatorIcEEEEEES9_EEbRKNS1_IT_EERKNS1_IT0_EE, symObjAddr: 0x50AC, symBinAddr: 0x10000849C, symSize: 0x60 }
  - { offsetInCU: 0x9112, offset: 0x9112, size: 0x8, addend: 0x0, symName: __ZNSt3__112__to_addressB8ue170006INS_16reverse_iteratorINS1_IPNS_12basic_stringIcNS_11char_traitsIcEENS_9allocatorIcEEEEEEEEvEEu7__decayIDTclsr19__to_address_helperIT_EE6__callclsr3stdE7declvalIRKSB_EEEEESD_, symObjAddr: 0x5138, symBinAddr: 0x100008528, symSize: 0x24 }
  - { offsetInCU: 0x9171, offset: 0x9171, size: 0x8, addend: 0x0, symName: __ZNSt3__1eqB8ue170006INS_9allocatorIcEEEEbRKNS_12basic_stringIcNS_11char_traitsIcEET_EES9_, symObjAddr: 0x63C4, symBinAddr: 0x1000097B4, symSize: 0x148 }
  - { offsetInCU: 0x91E4, offset: 0x91E4, size: 0x8, addend: 0x0, symName: __ZNSt3__118__constexpr_strlenB8ue170006EPKc, symObjAddr: 0x66EC, symBinAddr: 0x100009ADC, symSize: 0x24 }
  - { offsetInCU: 0x9210, offset: 0x9210, size: 0x8, addend: 0x0, symName: __ZNSt3__14swapB8ue170006INS_12basic_stringIcNS_11char_traitsIcEENS_9allocatorIcEEE5__repEEEvRT_S9_, symObjAddr: 0x6710, symBinAddr: 0x100009B00, symSize: 0x54 }
  - { offsetInCU: 0x9261, offset: 0x9261, size: 0x8, addend: 0x0, symName: __ZNSt3__116__swap_allocatorB8ue170006INS_9allocatorIcEEEEvRT_S4_, symObjAddr: 0x6764, symBinAddr: 0x100009B54, symSize: 0x2C }
  - { offsetInCU: 0x92A0, offset: 0x92A0, size: 0x8, addend: 0x0, symName: __ZNSt3__116__swap_allocatorB8ue170006INS_9allocatorIcEEEEvRT_S4_NS_17integral_constantIbLb0EEE, symObjAddr: 0x6790, symBinAddr: 0x100009B80, symSize: 0x14 }
  - { offsetInCU: 0x93A1, offset: 0x93A1, size: 0x8, addend: 0x0, symName: __ZNSt3__1eqB8ue170006IPP4ConnEEbRKNS_11__wrap_iterIT_EES8_, symObjAddr: 0x75F0, symBinAddr: 0x10000A9E0, symSize: 0x48 }
  - { offsetInCU: 0x95FB, offset: 0x95FB, size: 0x8, addend: 0x0, symName: __ZSt28__throw_bad_array_new_lengthB8ue170006v, symObjAddr: 0x1980, symBinAddr: 0x100004D70, symSize: 0x34 }
  - { offsetInCU: 0x9A83, offset: 0x9A83, size: 0x8, addend: 0x0, symName: __ZL6g_data, symObjAddr: 0x436E0, symBinAddr: 0x100010018, symSize: 0x0 }
  - { offsetInCU: 0x9E6F, offset: 0x9E6F, size: 0x8, addend: 0x0, symName: __ZNSt3__16vectorIP4ConnNS_9allocatorIS2_EEE26__swap_out_circular_bufferERNS_14__split_bufferIS2_RS4_EE, symObjAddr: 0x1008, symBinAddr: 0x1000043F8, symSize: 0x110 }
  - { offsetInCU: 0xA022, offset: 0xA022, size: 0x8, addend: 0x0, symName: __ZNSt3__16vectorINS_12basic_stringIcNS_11char_traitsIcEENS_9allocatorIcEEEENS4_IS6_EEE26__swap_out_circular_bufferERNS_14__split_bufferIS6_RS7_EE, symObjAddr: 0x425C, symBinAddr: 0x10000764C, symSize: 0x110 }
  - { offsetInCU: 0xC331, offset: 0xC331, size: 0x8, addend: 0x0, symName: __ZNSt3__13mapINS_12basic_stringIcNS_11char_traitsIcEENS_9allocatorIcEEEES6_NS_4lessIS6_EENS4_INS_4pairIKS6_S6_EEEEEC1B8ue170006Ev, symObjAddr: 0x0, symBinAddr: 0x1000033F0, symSize: 0x2C }
  - { offsetInCU: 0xC35A, offset: 0xC35A, size: 0x8, addend: 0x0, symName: __ZNSt3__13mapINS_12basic_stringIcNS_11char_traitsIcEENS_9allocatorIcEEEES6_NS_4lessIS6_EENS4_INS_4pairIKS6_S6_EEEEED1B8ue170006Ev, symObjAddr: 0x2C, symBinAddr: 0x10000341C, symSize: 0x2C }
  - { offsetInCU: 0xC388, offset: 0xC388, size: 0x8, addend: 0x0, symName: '__ZN3$_0C1Ev', symObjAddr: 0x58, symBinAddr: 0x100003448, symSize: 0x2C }
  - { offsetInCU: 0xC3B2, offset: 0xC3B2, size: 0x8, addend: 0x0, symName: __Z20new_listening_kqueuei, symObjAddr: 0x84, symBinAddr: 0x100003474, symSize: 0xD4 }
  - { offsetInCU: 0xC3FF, offset: 0xC3FF, size: 0x8, addend: 0x0, symName: __ZL3msgPKc, symObjAddr: 0x158, symBinAddr: 0x100003548, symSize: 0x40 }
  - { offsetInCU: 0xC428, offset: 0xC428, size: 0x8, addend: 0x0, symName: _main, symObjAddr: 0x198, symBinAddr: 0x100003588, symSize: 0x404 }
  - { offsetInCU: 0xC554, offset: 0xC554, size: 0x8, addend: 0x0, symName: __ZL3diePKc, symObjAddr: 0x59C, symBinAddr: 0x10000398C, symSize: 0x50 }
  - { offsetInCU: 0xC58B, offset: 0xC58B, size: 0x8, addend: 0x0, symName: __ZNSt3__16vectorIP4ConnNS_9allocatorIS2_EEEC1B8ue170006Ev, symObjAddr: 0x5EC, symBinAddr: 0x1000039DC, symSize: 0x2C }
  - { offsetInCU: 0xC5B4, offset: 0xC5B4, size: 0x8, addend: 0x0, symName: __ZL9fd_set_nbi, symObjAddr: 0x618, symBinAddr: 0x100003A08, symSize: 0xC4 }
  - { offsetInCU: 0xC5EA, offset: 0xC5EA, size: 0x8, addend: 0x0, symName: __ZNSt3__16vectorIP4ConnNS_9allocatorIS2_EEE5beginB8ue170006Ev, symObjAddr: 0x6DC, symBinAddr: 0x100003ACC, symSize: 0x30 }
  - { offsetInCU: 0xC610, offset: 0xC610, size: 0x8, addend: 0x0, symName: __ZNSt3__16vectorIP4ConnNS_9allocatorIS2_EEE3endB8ue170006Ev, symObjAddr: 0x70C, symBinAddr: 0x100003AFC, symSize: 0x30 }
  - { offsetInCU: 0xC637, offset: 0xC637, size: 0x8, addend: 0x0, symName: __ZNKSt3__111__wrap_iterIPP4ConnEdeB8ue170006Ev, symObjAddr: 0x770, symBinAddr: 0x100003B60, symSize: 0x18 }
  - { offsetInCU: 0xC65C, offset: 0xC65C, size: 0x8, addend: 0x0, symName: __ZNSt3__111__wrap_iterIPP4ConnEppB8ue170006Ev, symObjAddr: 0x788, symBinAddr: 0x100003B78, symSize: 0x20 }
  - { offsetInCU: 0xC681, offset: 0xC681, size: 0x8, addend: 0x0, symName: __ZL15accept_new_connRNSt3__16vectorIP4ConnNS_9allocatorIS2_EEEEi, symObjAddr: 0x7A8, symBinAddr: 0x100003B98, symSize: 0x134 }
  - { offsetInCU: 0xC6F3, offset: 0xC6F3, size: 0x8, addend: 0x0, symName: __ZNSt3__16vectorIP4ConnNS_9allocatorIS2_EEEixB8ue170006Em, symObjAddr: 0x8DC, symBinAddr: 0x100003CCC, symSize: 0x24 }
  - { offsetInCU: 0xC729, offset: 0xC729, size: 0x8, addend: 0x0, symName: __ZL13connection_ioP4Conn, symObjAddr: 0x900, symBinAddr: 0x100003CF0, symSize: 0x88 }
  - { offsetInCU: 0xC754, offset: 0xC754, size: 0x8, addend: 0x0, symName: __ZNSt3__16vectorIP4ConnNS_9allocatorIS2_EEED1B8ue170006Ev, symObjAddr: 0x988, symBinAddr: 0x100003D78, symSize: 0x2C }
  - { offsetInCU: 0xC77D, offset: 0xC77D, size: 0x8, addend: 0x0, symName: '__ZN3$_0C2Ev', symObjAddr: 0x9C0, symBinAddr: 0x100003DB0, symSize: 0x2C }
  - { offsetInCU: 0xC7AD, offset: 0xC7AD, size: 0x8, addend: 0x0, symName: __ZN4HMapC1Ev, symObjAddr: 0x9EC, symBinAddr: 0x100003DDC, symSize: 0x2C }
  - { offsetInCU: 0xC7D8, offset: 0xC7D8, size: 0x8, addend: 0x0, symName: __ZN4HMapC2Ev, symObjAddr: 0xA18, symBinAddr: 0x100003E08, symSize: 0x38 }
  - { offsetInCU: 0xC808, offset: 0xC808, size: 0x8, addend: 0x0, symName: __ZN6HTableC1Ev, symObjAddr: 0xA50, symBinAddr: 0x100003E40, symSize: 0x2C }
  - { offsetInCU: 0xC833, offset: 0xC833, size: 0x8, addend: 0x0, symName: __ZN6HTableC2Ev, symObjAddr: 0xA7C, symBinAddr: 0x100003E6C, symSize: 0x20 }
  - { offsetInCU: 0xC85E, offset: 0xC85E, size: 0x8, addend: 0x0, symName: __ZL8conn_putRNSt3__16vectorIP4ConnNS_9allocatorIS2_EEEES2_, symObjAddr: 0xA9C, symBinAddr: 0x100003E8C, symSize: 0x80 }
  - { offsetInCU: 0xC895, offset: 0xC895, size: 0x8, addend: 0x0, symName: __ZNKSt3__16vectorIP4ConnNS_9allocatorIS2_EEE4sizeB8ue170006Ev, symObjAddr: 0xB1C, symBinAddr: 0x100003F0C, symSize: 0x28 }
  - { offsetInCU: 0xC8B9, offset: 0xC8B9, size: 0x8, addend: 0x0, symName: __ZNSt3__16vectorIP4ConnNS_9allocatorIS2_EEE6resizeEm, symObjAddr: 0xB44, symBinAddr: 0x100003F34, symSize: 0x94 }
  - { offsetInCU: 0xC8FD, offset: 0xC8FD, size: 0x8, addend: 0x0, symName: __ZNSt3__16vectorIP4ConnNS_9allocatorIS2_EEE8__appendEm, symObjAddr: 0xBD8, symBinAddr: 0x100003FC8, symSize: 0x110 }
  - { offsetInCU: 0xC958, offset: 0xC958, size: 0x8, addend: 0x0, symName: __ZNSt3__16vectorIP4ConnNS_9allocatorIS2_EEE17__destruct_at_endB8ue170006EPS2_, symObjAddr: 0xCE8, symBinAddr: 0x1000040D8, symSize: 0x4C }
  - { offsetInCU: 0xC99B, offset: 0xC99B, size: 0x8, addend: 0x0, symName: __ZNSt3__16vectorIP4ConnNS_9allocatorIS2_EEE9__end_capB8ue170006Ev, symObjAddr: 0xD34, symBinAddr: 0x100004124, symSize: 0x28 }
  - { offsetInCU: 0xC9BF, offset: 0xC9BF, size: 0x8, addend: 0x0, symName: __ZNSt3__16vectorIP4ConnNS_9allocatorIS2_EEE18__construct_at_endEm, symObjAddr: 0xD5C, symBinAddr: 0x10000414C, symSize: 0xD0 }
  - { offsetInCU: 0xCA31, offset: 0xCA31, size: 0x8, addend: 0x0, symName: __ZNSt3__16vectorIP4ConnNS_9allocatorIS2_EEE7__allocB8ue170006Ev, symObjAddr: 0xE2C, symBinAddr: 0x10000421C, symSize: 0x28 }
  - { offsetInCU: 0xCA55, offset: 0xCA55, size: 0x8, addend: 0x0, symName: __ZNKSt3__16vectorIP4ConnNS_9allocatorIS2_EEE11__recommendB8ue170006Em, symObjAddr: 0xE54, symBinAddr: 0x100004244, symSize: 0xB4 }
  - { offsetInCU: 0xCAA9, offset: 0xCAA9, size: 0x8, addend: 0x0, symName: __ZNSt3__114__split_bufferIP4ConnRNS_9allocatorIS2_EEEC1EmmS5_, symObjAddr: 0xF08, symBinAddr: 0x1000042F8, symSize: 0x44 }
  - { offsetInCU: 0xCAFD, offset: 0xCAFD, size: 0x8, addend: 0x0, symName: __ZNSt3__114__split_bufferIP4ConnRNS_9allocatorIS2_EEE18__construct_at_endEm, symObjAddr: 0xF4C, symBinAddr: 0x10000433C, symSize: 0xBC }
  - { offsetInCU: 0xCB41, offset: 0xCB41, size: 0x8, addend: 0x0, symName: __ZNSt3__114__split_bufferIP4ConnRNS_9allocatorIS2_EEED1Ev, symObjAddr: 0x1118, symBinAddr: 0x100004508, symSize: 0x2C }
  - { offsetInCU: 0xCB6C, offset: 0xCB6C, size: 0x8, addend: 0x0, symName: __ZNSt3__117__compressed_pairIPP4ConnNS_9allocatorIS2_EEE5firstB8ue170006Ev, symObjAddr: 0x1144, symBinAddr: 0x100004534, symSize: 0x24 }
  - { offsetInCU: 0xCB91, offset: 0xCB91, size: 0x8, addend: 0x0, symName: __ZNSt3__122__compressed_pair_elemIPP4ConnLi0ELb0EE5__getB8ue170006Ev, symObjAddr: 0x1168, symBinAddr: 0x100004558, symSize: 0x14 }
  - { offsetInCU: 0xCBCF, offset: 0xCBCF, size: 0x8, addend: 0x0, symName: __ZNSt3__16vectorIP4ConnNS_9allocatorIS2_EEE21_ConstructTransactionC1B8ue170006ERS5_m, symObjAddr: 0x117C, symBinAddr: 0x10000456C, symSize: 0x3C }
  - { offsetInCU: 0xCC16, offset: 0xCC16, size: 0x8, addend: 0x0, symName: __ZNSt3__116allocator_traitsINS_9allocatorIP4ConnEEE9constructB8ue170006IS3_JEvEEvRS4_PT_DpOT0_, symObjAddr: 0x11B8, symBinAddr: 0x1000045A8, symSize: 0x2C }
  - { offsetInCU: 0xCC58, offset: 0xCC58, size: 0x8, addend: 0x0, symName: __ZNSt3__16vectorIP4ConnNS_9allocatorIS2_EEE21_ConstructTransactionD1B8ue170006Ev, symObjAddr: 0x11F8, symBinAddr: 0x1000045E8, symSize: 0x2C }
  - { offsetInCU: 0xCC81, offset: 0xCC81, size: 0x8, addend: 0x0, symName: __ZNSt3__16vectorIP4ConnNS_9allocatorIS2_EEE21_ConstructTransactionC2B8ue170006ERS5_m, symObjAddr: 0x1224, symBinAddr: 0x100004614, symSize: 0x44 }
  - { offsetInCU: 0xCCC8, offset: 0xCCC8, size: 0x8, addend: 0x0, symName: __ZNSt3__19allocatorIP4ConnE9constructB8ue170006IS2_JEEEvPT_DpOT0_, symObjAddr: 0x1268, symBinAddr: 0x100004658, symSize: 0x1C }
  - { offsetInCU: 0xCD09, offset: 0xCD09, size: 0x8, addend: 0x0, symName: __ZNSt3__16vectorIP4ConnNS_9allocatorIS2_EEE21_ConstructTransactionD2B8ue170006Ev, symObjAddr: 0x1284, symBinAddr: 0x100004674, symSize: 0x20 }
  - { offsetInCU: 0xCD32, offset: 0xCD32, size: 0x8, addend: 0x0, symName: __ZNSt3__117__compressed_pairIPP4ConnNS_9allocatorIS2_EEE6secondB8ue170006Ev, symObjAddr: 0x12A4, symBinAddr: 0x100004694, symSize: 0x24 }
  - { offsetInCU: 0xCD57, offset: 0xCD57, size: 0x8, addend: 0x0, symName: __ZNSt3__122__compressed_pair_elemINS_9allocatorIP4ConnEELi1ELb1EE5__getB8ue170006Ev, symObjAddr: 0x12C8, symBinAddr: 0x1000046B8, symSize: 0x14 }
  - { offsetInCU: 0xCD7B, offset: 0xCD7B, size: 0x8, addend: 0x0, symName: __ZNKSt3__16vectorIP4ConnNS_9allocatorIS2_EEE8max_sizeEv, symObjAddr: 0x12DC, symBinAddr: 0x1000046CC, symSize: 0x74 }
  - { offsetInCU: 0xCDA2, offset: 0xCDA2, size: 0x8, addend: 0x0, symName: __ZNKSt3__16vectorIP4ConnNS_9allocatorIS2_EEE20__throw_length_errorB8ue170006Ev, symObjAddr: 0x1350, symBinAddr: 0x100004740, symSize: 0x1C }
  - { offsetInCU: 0xCDC7, offset: 0xCDC7, size: 0x8, addend: 0x0, symName: __ZNKSt3__16vectorIP4ConnNS_9allocatorIS2_EEE8capacityB8ue170006Ev, symObjAddr: 0x136C, symBinAddr: 0x10000475C, symSize: 0x40 }
  - { offsetInCU: 0xCDF6, offset: 0xCDF6, size: 0x8, addend: 0x0, symName: __ZNSt3__116allocator_traitsINS_9allocatorIP4ConnEEE8max_sizeB8ue170006IS4_vEEmRKS4_, symObjAddr: 0x1404, symBinAddr: 0x1000047F4, symSize: 0x24 }
  - { offsetInCU: 0xCE24, offset: 0xCE24, size: 0x8, addend: 0x0, symName: __ZNKSt3__16vectorIP4ConnNS_9allocatorIS2_EEE7__allocB8ue170006Ev, symObjAddr: 0x1428, symBinAddr: 0x100004818, symSize: 0x28 }
  - { offsetInCU: 0xCE49, offset: 0xCE49, size: 0x8, addend: 0x0, symName: __ZNSt3__114numeric_limitsIlE3maxB8ue170006Ev, symObjAddr: 0x1450, symBinAddr: 0x100004840, symSize: 0x14 }
  - { offsetInCU: 0xCE67, offset: 0xCE67, size: 0x8, addend: 0x0, symName: __ZNKSt3__16__lessIvvEclB8ue170006ImmEEbRKT_RKT0_, symObjAddr: 0x14B8, symBinAddr: 0x1000048A8, symSize: 0x34 }
  - { offsetInCU: 0xCEBA, offset: 0xCEBA, size: 0x8, addend: 0x0, symName: __ZNKSt3__19allocatorIP4ConnE8max_sizeB8ue170006Ev, symObjAddr: 0x14EC, symBinAddr: 0x1000048DC, symSize: 0x14 }
  - { offsetInCU: 0xCEDF, offset: 0xCEDF, size: 0x8, addend: 0x0, symName: __ZNKSt3__117__compressed_pairIPP4ConnNS_9allocatorIS2_EEE6secondB8ue170006Ev, symObjAddr: 0x1500, symBinAddr: 0x1000048F0, symSize: 0x24 }
  - { offsetInCU: 0xCF04, offset: 0xCF04, size: 0x8, addend: 0x0, symName: __ZNKSt3__122__compressed_pair_elemINS_9allocatorIP4ConnEELi1ELb1EE5__getB8ue170006Ev, symObjAddr: 0x1524, symBinAddr: 0x100004914, symSize: 0x14 }
  - { offsetInCU: 0xCF29, offset: 0xCF29, size: 0x8, addend: 0x0, symName: __ZNSt3__123__libcpp_numeric_limitsIlLb1EE3maxB8ue170006Ev, symObjAddr: 0x1538, symBinAddr: 0x100004928, symSize: 0x8 }
  - { offsetInCU: 0xCF3D, offset: 0xCF3D, size: 0x8, addend: 0x0, symName: __ZNSt12length_errorC1B8ue170006EPKc, symObjAddr: 0x15A4, symBinAddr: 0x100004994, symSize: 0x34 }
  - { offsetInCU: 0xCF74, offset: 0xCF74, size: 0x8, addend: 0x0, symName: __ZNSt12length_errorC2B8ue170006EPKc, symObjAddr: 0x15D8, symBinAddr: 0x1000049C8, symSize: 0x4C }
  - { offsetInCU: 0xCFAB, offset: 0xCFAB, size: 0x8, addend: 0x0, symName: __ZNKSt3__16vectorIP4ConnNS_9allocatorIS2_EEE9__end_capB8ue170006Ev, symObjAddr: 0x1624, symBinAddr: 0x100004A14, symSize: 0x28 }
  - { offsetInCU: 0xCFD0, offset: 0xCFD0, size: 0x8, addend: 0x0, symName: __ZNKSt3__117__compressed_pairIPP4ConnNS_9allocatorIS2_EEE5firstB8ue170006Ev, symObjAddr: 0x164C, symBinAddr: 0x100004A3C, symSize: 0x24 }
  - { offsetInCU: 0xCFF5, offset: 0xCFF5, size: 0x8, addend: 0x0, symName: __ZNKSt3__122__compressed_pair_elemIPP4ConnLi0ELb0EE5__getB8ue170006Ev, symObjAddr: 0x1670, symBinAddr: 0x100004A60, symSize: 0x14 }
  - { offsetInCU: 0xD01A, offset: 0xD01A, size: 0x8, addend: 0x0, symName: __ZNSt3__114__split_bufferIP4ConnRNS_9allocatorIS2_EEEC2EmmS5_, symObjAddr: 0x16D8, symBinAddr: 0x100004AC8, symSize: 0xD4 }
  - { offsetInCU: 0xD092, offset: 0xD092, size: 0x8, addend: 0x0, symName: __ZNSt3__117__compressed_pairIPP4ConnRNS_9allocatorIS2_EEEC1B8ue170006IDnS6_EEOT_OT0_, symObjAddr: 0x17AC, symBinAddr: 0x100004B9C, symSize: 0x3C }
  - { offsetInCU: 0xD0E9, offset: 0xD0E9, size: 0x8, addend: 0x0, symName: __ZNSt3__114__split_bufferIP4ConnRNS_9allocatorIS2_EEE7__allocB8ue170006Ev, symObjAddr: 0x1828, symBinAddr: 0x100004C18, symSize: 0x28 }
  - { offsetInCU: 0xD10E, offset: 0xD10E, size: 0x8, addend: 0x0, symName: __ZNSt3__114__split_bufferIP4ConnRNS_9allocatorIS2_EEE9__end_capB8ue170006Ev, symObjAddr: 0x1850, symBinAddr: 0x100004C40, symSize: 0x28 }
  - { offsetInCU: 0xD133, offset: 0xD133, size: 0x8, addend: 0x0, symName: __ZNSt3__117__compressed_pairIPP4ConnRNS_9allocatorIS2_EEEC2B8ue170006IDnS6_EEOT_OT0_, symObjAddr: 0x1878, symBinAddr: 0x100004C68, symSize: 0x48 }
  - { offsetInCU: 0xD18A, offset: 0xD18A, size: 0x8, addend: 0x0, symName: __ZNSt3__122__compressed_pair_elemIPP4ConnLi0ELb0EEC2B8ue170006IDnvEEOT_, symObjAddr: 0x18C0, symBinAddr: 0x100004CB0, symSize: 0x1C }
  - { offsetInCU: 0xD1CB, offset: 0xD1CB, size: 0x8, addend: 0x0, symName: __ZNSt3__122__compressed_pair_elemIRNS_9allocatorIP4ConnEELi1ELb0EEC2B8ue170006IS5_vEEOT_, symObjAddr: 0x18DC, symBinAddr: 0x100004CCC, symSize: 0x20 }
  - { offsetInCU: 0xD20C, offset: 0xD20C, size: 0x8, addend: 0x0, symName: __ZNSt3__19allocatorIP4ConnE8allocateB8ue170006Em, symObjAddr: 0x18FC, symBinAddr: 0x100004CEC, symSize: 0x84 }
  - { offsetInCU: 0xD23F, offset: 0xD23F, size: 0x8, addend: 0x0, symName: __ZNSt3__117__compressed_pairIPP4ConnRNS_9allocatorIS2_EEE6secondB8ue170006Ev, symObjAddr: 0x1A0C, symBinAddr: 0x100004DFC, symSize: 0x28 }
  - { offsetInCU: 0xD264, offset: 0xD264, size: 0x8, addend: 0x0, symName: __ZNSt3__122__compressed_pair_elemIRNS_9allocatorIP4ConnEELi1ELb0EE5__getB8ue170006Ev, symObjAddr: 0x1A34, symBinAddr: 0x100004E24, symSize: 0x18 }
  - { offsetInCU: 0xD289, offset: 0xD289, size: 0x8, addend: 0x0, symName: __ZNSt3__117__compressed_pairIPP4ConnRNS_9allocatorIS2_EEE5firstB8ue170006Ev, symObjAddr: 0x1A4C, symBinAddr: 0x100004E3C, symSize: 0x24 }
  - { offsetInCU: 0xD2B8, offset: 0xD2B8, size: 0x8, addend: 0x0, symName: __ZNSt3__114__split_bufferIP4ConnRNS_9allocatorIS2_EEE21_ConstructTransactionC1B8ue170006EPPS2_m, symObjAddr: 0x1A70, symBinAddr: 0x100004E60, symSize: 0x3C }
  - { offsetInCU: 0xD2FD, offset: 0xD2FD, size: 0x8, addend: 0x0, symName: __ZNSt3__114__split_bufferIP4ConnRNS_9allocatorIS2_EEE21_ConstructTransactionD1B8ue170006Ev, symObjAddr: 0x1AAC, symBinAddr: 0x100004E9C, symSize: 0x2C }
  - { offsetInCU: 0xD326, offset: 0xD326, size: 0x8, addend: 0x0, symName: __ZNSt3__114__split_bufferIP4ConnRNS_9allocatorIS2_EEE21_ConstructTransactionC2B8ue170006EPPS2_m, symObjAddr: 0x1AD8, symBinAddr: 0x100004EC8, symSize: 0x44 }
  - { offsetInCU: 0xD36B, offset: 0xD36B, size: 0x8, addend: 0x0, symName: __ZNSt3__114__split_bufferIP4ConnRNS_9allocatorIS2_EEE21_ConstructTransactionD2B8ue170006Ev, symObjAddr: 0x1B1C, symBinAddr: 0x100004F0C, symSize: 0x20 }
  - { offsetInCU: 0xD394, offset: 0xD394, size: 0x8, addend: 0x0, symName: __ZNKSt3__16vectorIP4ConnNS_9allocatorIS2_EEE17__annotate_deleteB8ue170006Ev, symObjAddr: 0x1B3C, symBinAddr: 0x100004F2C, symSize: 0xB8 }
  - { offsetInCU: 0xD3B9, offset: 0xD3B9, size: 0x8, addend: 0x0, symName: __ZNSt3__116reverse_iteratorIPP4ConnEC1B8ue170006ES3_, symObjAddr: 0x1CDC, symBinAddr: 0x1000050CC, symSize: 0x34 }
  - { offsetInCU: 0xD3F0, offset: 0xD3F0, size: 0x8, addend: 0x0, symName: __ZNKSt3__116reverse_iteratorIPP4ConnE4baseB8ue170006Ev, symObjAddr: 0x1D10, symBinAddr: 0x100005100, symSize: 0x18 }
  - { offsetInCU: 0xD415, offset: 0xD415, size: 0x8, addend: 0x0, symName: __ZNKSt3__16vectorIP4ConnNS_9allocatorIS2_EEE14__annotate_newB8ue170006Em, symObjAddr: 0x1D64, symBinAddr: 0x100005154, symSize: 0xAC }
  - { offsetInCU: 0xD449, offset: 0xD449, size: 0x8, addend: 0x0, symName: __ZNKSt3__16vectorIP4ConnNS_9allocatorIS2_EEE31__annotate_contiguous_containerB8ue170006EPKvS7_S7_S7_, symObjAddr: 0x1E10, symBinAddr: 0x100005200, symSize: 0x20 }
  - { offsetInCU: 0xD49A, offset: 0xD49A, size: 0x8, addend: 0x0, symName: __ZNKSt3__16vectorIP4ConnNS_9allocatorIS2_EEE4dataB8ue170006Ev, symObjAddr: 0x1E30, symBinAddr: 0x100005220, symSize: 0x28 }
  - { offsetInCU: 0xD4BF, offset: 0xD4BF, size: 0x8, addend: 0x0, symName: __ZNKSt3__116reverse_iteratorIPP4ConnEdeB8ue170006Ev, symObjAddr: 0x1EF0, symBinAddr: 0x1000052E0, symSize: 0x28 }
  - { offsetInCU: 0xD4F2, offset: 0xD4F2, size: 0x8, addend: 0x0, symName: __ZNSt3__116reverse_iteratorIPP4ConnEppB8ue170006Ev, symObjAddr: 0x1F18, symBinAddr: 0x100005308, symSize: 0x20 }
  - { offsetInCU: 0xD51C, offset: 0xD51C, size: 0x8, addend: 0x0, symName: __ZNSt3__119__to_address_helperINS_16reverse_iteratorIPP4ConnEEvE6__callB8ue170006ERKS5_, symObjAddr: 0x1FB0, symBinAddr: 0x1000053A0, symSize: 0x4C }
  - { offsetInCU: 0xD53F, offset: 0xD53F, size: 0x8, addend: 0x0, symName: __ZNKSt3__116reverse_iteratorIPP4ConnEptB8ue170006Ev, symObjAddr: 0x1FFC, symBinAddr: 0x1000053EC, symSize: 0x24 }
  - { offsetInCU: 0xD587, offset: 0xD587, size: 0x8, addend: 0x0, symName: __ZNKSt3__111__move_loopINS_17_ClassicAlgPolicyEEclB8ue170006INS_16reverse_iteratorIPP4ConnEES8_S8_EENS_4pairIT_T1_EESA_T0_SB_, symObjAddr: 0x2298, symBinAddr: 0x100005688, symSize: 0xA0 }
  - { offsetInCU: 0xD5F6, offset: 0xD5F6, size: 0x8, addend: 0x0, symName: __ZNSt3__18_IterOpsINS_17_ClassicAlgPolicyEE11__iter_moveB8ue170006IRNS_16reverse_iteratorIPP4ConnEEEENS_9enable_ifIXsr12is_referenceIDTdeclsr3stdE7declvalIRT_EEEEE5valueEDTclsr3stdE4movedeclsr3stdE7declvalISC_EEEEE4typeEOSB_, symObjAddr: 0x2498, symBinAddr: 0x100005888, symSize: 0x28 }
  - { offsetInCU: 0xD622, offset: 0xD622, size: 0x8, addend: 0x0, symName: __ZNSt3__18_IterOpsINS_17_ClassicAlgPolicyEE25__validate_iter_referenceB8ue170006IRNS_16reverse_iteratorIPP4ConnEEEEvv, symObjAddr: 0x24C0, symBinAddr: 0x1000058B0, symSize: 0x4 }
  - { offsetInCU: 0xD640, offset: 0xD640, size: 0x8, addend: 0x0, symName: __ZNSt3__118__unwrap_iter_implINS_16reverse_iteratorIPP4ConnEELb0EE8__unwrapB8ue170006ES5_, symObjAddr: 0x24C4, symBinAddr: 0x1000058B4, symSize: 0x24 }
  - { offsetInCU: 0xD663, offset: 0xD663, size: 0x8, addend: 0x0, symName: __ZNSt3__14pairINS_16reverse_iteratorIPP4ConnEES5_EC1B8ue170006ERKS5_S8_, symObjAddr: 0x24E8, symBinAddr: 0x1000058D8, symSize: 0x3C }
  - { offsetInCU: 0xD6A8, offset: 0xD6A8, size: 0x8, addend: 0x0, symName: __ZNSt3__14pairINS_16reverse_iteratorIPP4ConnEES5_EC2B8ue170006ERKS5_S8_, symObjAddr: 0x2524, symBinAddr: 0x100005914, symSize: 0x34 }
  - { offsetInCU: 0xD6ED, offset: 0xD6ED, size: 0x8, addend: 0x0, symName: __ZNSt3__118__unwrap_iter_implINS_16reverse_iteratorIPP4ConnEELb0EE8__rewrapB8ue170006ES5_S5_, symObjAddr: 0x2558, symBinAddr: 0x100005948, symSize: 0x2C }
  - { offsetInCU: 0xD71A, offset: 0xD71A, size: 0x8, addend: 0x0, symName: __ZNSt3__116reverse_iteratorIPP4ConnEC2B8ue170006ES3_, symObjAddr: 0x2584, symBinAddr: 0x100005974, symSize: 0x28 }
  - { offsetInCU: 0xD751, offset: 0xD751, size: 0x8, addend: 0x0, symName: __ZNSt3__114__split_bufferIP4ConnRNS_9allocatorIS2_EEED2Ev, symObjAddr: 0x25AC, symBinAddr: 0x10000599C, symSize: 0x80 }
  - { offsetInCU: 0xD77C, offset: 0xD77C, size: 0x8, addend: 0x0, symName: __ZNSt3__114__split_bufferIP4ConnRNS_9allocatorIS2_EEE5clearB8ue170006Ev, symObjAddr: 0x262C, symBinAddr: 0x100005A1C, symSize: 0x28 }
  - { offsetInCU: 0xD7A1, offset: 0xD7A1, size: 0x8, addend: 0x0, symName: __ZNSt3__116allocator_traitsINS_9allocatorIP4ConnEEE10deallocateB8ue170006ERS4_PS3_m, symObjAddr: 0x2654, symBinAddr: 0x100005A44, symSize: 0x34 }
  - { offsetInCU: 0xD7E3, offset: 0xD7E3, size: 0x8, addend: 0x0, symName: __ZNKSt3__114__split_bufferIP4ConnRNS_9allocatorIS2_EEE8capacityB8ue170006Ev, symObjAddr: 0x2688, symBinAddr: 0x100005A78, symSize: 0x40 }
  - { offsetInCU: 0xD808, offset: 0xD808, size: 0x8, addend: 0x0, symName: __ZNSt3__114__split_bufferIP4ConnRNS_9allocatorIS2_EEE17__destruct_at_endB8ue170006EPS2_, symObjAddr: 0x26C8, symBinAddr: 0x100005AB8, symSize: 0x2C }
  - { offsetInCU: 0xD83A, offset: 0xD83A, size: 0x8, addend: 0x0, symName: __ZNSt3__114__split_bufferIP4ConnRNS_9allocatorIS2_EEE17__destruct_at_endB8ue170006EPS2_NS_17integral_constantIbLb0EEE, symObjAddr: 0x26F4, symBinAddr: 0x100005AE4, symSize: 0x94 }
  - { offsetInCU: 0xD879, offset: 0xD879, size: 0x8, addend: 0x0, symName: __ZNSt3__116allocator_traitsINS_9allocatorIP4ConnEEE7destroyB8ue170006IS3_vEEvRS4_PT_, symObjAddr: 0x2788, symBinAddr: 0x100005B78, symSize: 0x2C }
  - { offsetInCU: 0xD8B6, offset: 0xD8B6, size: 0x8, addend: 0x0, symName: __ZNSt3__19allocatorIP4ConnE7destroyB8ue170006EPS2_, symObjAddr: 0x27B4, symBinAddr: 0x100005BA4, symSize: 0x14 }
  - { offsetInCU: 0xD8E9, offset: 0xD8E9, size: 0x8, addend: 0x0, symName: __ZNSt3__19allocatorIP4ConnE10deallocateB8ue170006EPS2_m, symObjAddr: 0x27C8, symBinAddr: 0x100005BB8, symSize: 0x70 }
  - { offsetInCU: 0xD92A, offset: 0xD92A, size: 0x8, addend: 0x0, symName: __ZNKSt3__114__split_bufferIP4ConnRNS_9allocatorIS2_EEE9__end_capB8ue170006Ev, symObjAddr: 0x28B4, symBinAddr: 0x100005CA4, symSize: 0x28 }
  - { offsetInCU: 0xD94F, offset: 0xD94F, size: 0x8, addend: 0x0, symName: __ZNKSt3__117__compressed_pairIPP4ConnRNS_9allocatorIS2_EEE5firstB8ue170006Ev, symObjAddr: 0x28DC, symBinAddr: 0x100005CCC, symSize: 0x24 }
  - { offsetInCU: 0xD974, offset: 0xD974, size: 0x8, addend: 0x0, symName: __ZNSt3__16vectorIP4ConnNS_9allocatorIS2_EEE22__base_destruct_at_endB8ue170006EPS2_, symObjAddr: 0x2900, symBinAddr: 0x100005CF0, symSize: 0xA0 }
  - { offsetInCU: 0xD9B7, offset: 0xD9B7, size: 0x8, addend: 0x0, symName: __ZNKSt3__16vectorIP4ConnNS_9allocatorIS2_EEE17__annotate_shrinkB8ue170006Em, symObjAddr: 0x29A0, symBinAddr: 0x100005D90, symSize: 0xB4 }
  - { offsetInCU: 0xD9EB, offset: 0xD9EB, size: 0x8, addend: 0x0, symName: __ZL9state_reqP4Conn, symObjAddr: 0x2A54, symBinAddr: 0x100005E44, symSize: 0x34 }
  - { offsetInCU: 0xDA16, offset: 0xDA16, size: 0x8, addend: 0x0, symName: __ZL9state_resP4Conn, symObjAddr: 0x2A88, symBinAddr: 0x100005E78, symSize: 0x34 }
  - { offsetInCU: 0xDA41, offset: 0xDA41, size: 0x8, addend: 0x0, symName: __ZL15try_fill_bufferP4Conn, symObjAddr: 0x2ABC, symBinAddr: 0x100005EAC, symSize: 0x308 }
  - { offsetInCU: 0xDA9F, offset: 0xDA9F, size: 0x8, addend: 0x0, symName: __ZL15try_one_requestP4Conn, symObjAddr: 0x2DC4, symBinAddr: 0x1000061B4, symSize: 0x4D0 }
  - { offsetInCU: 0xDB68, offset: 0xDB68, size: 0x8, addend: 0x0, symName: __ZNKSt3__112basic_stringIcNS_11char_traitsIcEENS_9allocatorIcEEE4sizeB8ue170006Ev, symObjAddr: 0x3294, symBinAddr: 0x100006684, symSize: 0x54 }
  - { offsetInCU: 0xDB8D, offset: 0xDB8D, size: 0x8, addend: 0x0, symName: __ZNKSt3__112basic_stringIcNS_11char_traitsIcEENS_9allocatorIcEEE4dataB8ue170006Ev, symObjAddr: 0x32E8, symBinAddr: 0x1000066D8, symSize: 0x28 }
  - { offsetInCU: 0xDBB1, offset: 0xDBB1, size: 0x8, addend: 0x0, symName: __ZNSt3__112basic_stringIcNS_11char_traitsIcEENS_9allocatorIcEEE5clearB8ue170006Ev, symObjAddr: 0x3310, symBinAddr: 0x100006700, symSize: 0x78 }
  - { offsetInCU: 0xDBD8, offset: 0xDBD8, size: 0x8, addend: 0x0, symName: __ZNSt3__16vectorINS_12basic_stringIcNS_11char_traitsIcEENS_9allocatorIcEEEENS4_IS6_EEEC1B8ue170006Ev, symObjAddr: 0x3388, symBinAddr: 0x100006778, symSize: 0x2C }
  - { offsetInCU: 0xDC01, offset: 0xDC01, size: 0x8, addend: 0x0, symName: __ZL9parse_reqPKhjRNSt3__16vectorINS1_12basic_stringIcNS1_11char_traitsIcEENS1_9allocatorIcEEEENS6_IS8_EEEE, symObjAddr: 0x33B4, symBinAddr: 0x1000067A4, symSize: 0x1B8 }
  - { offsetInCU: 0xDC7B, offset: 0xDC7B, size: 0x8, addend: 0x0, symName: __ZNSt3__112basic_stringIcNS_11char_traitsIcEENS_9allocatorIcEEEC1B8ue170006Ev, symObjAddr: 0x356C, symBinAddr: 0x10000695C, symSize: 0x2C }
  - { offsetInCU: 0xDCA4, offset: 0xDCA4, size: 0x8, addend: 0x0, symName: __ZL10do_requestRNSt3__16vectorINS_12basic_stringIcNS_11char_traitsIcEENS_9allocatorIcEEEENS4_IS6_EEEERS6_, symObjAddr: 0x3598, symBinAddr: 0x100006988, symSize: 0x1B0 }
  - { offsetInCU: 0xDCDE, offset: 0xDCDE, size: 0x8, addend: 0x0, symName: __ZL7out_errRNSt3__112basic_stringIcNS_11char_traitsIcEENS_9allocatorIcEEEEiRKS5_, symObjAddr: 0x3748, symBinAddr: 0x100006B38, symSize: 0x78 }
  - { offsetInCU: 0xDD36, offset: 0xDD36, size: 0x8, addend: 0x0, symName: __ZNSt3__112basic_stringIcNS_11char_traitsIcEENS_9allocatorIcEEEC1B8ue170006ILi0EEEPKc, symObjAddr: 0x37C0, symBinAddr: 0x100006BB0, symSize: 0x34 }
  - { offsetInCU: 0xDD73, offset: 0xDD73, size: 0x8, addend: 0x0, symName: __ZNSt3__112basic_stringIcNS_11char_traitsIcEENS_9allocatorIcEEE4swapB8ue170006ERS5_, symObjAddr: 0x37F4, symBinAddr: 0x100006BE4, symSize: 0x64 }
  - { offsetInCU: 0xDDA9, offset: 0xDDA9, size: 0x8, addend: 0x0, symName: __ZNSt3__16vectorINS_12basic_stringIcNS_11char_traitsIcEENS_9allocatorIcEEEENS4_IS6_EEED1B8ue170006Ev, symObjAddr: 0x3858, symBinAddr: 0x100006C48, symSize: 0x2C }
  - { offsetInCU: 0xDDD2, offset: 0xDDD2, size: 0x8, addend: 0x0, symName: __ZNKSt3__112basic_stringIcNS_11char_traitsIcEENS_9allocatorIcEEE9__is_longB8ue170006Ev, symObjAddr: 0x3884, symBinAddr: 0x100006C74, symSize: 0x74 }
  - { offsetInCU: 0xDDF7, offset: 0xDDF7, size: 0x8, addend: 0x0, symName: __ZNKSt3__112basic_stringIcNS_11char_traitsIcEENS_9allocatorIcEEE15__get_long_sizeB8ue170006Ev, symObjAddr: 0x38F8, symBinAddr: 0x100006CE8, symSize: 0x28 }
  - { offsetInCU: 0xDE1C, offset: 0xDE1C, size: 0x8, addend: 0x0, symName: __ZNKSt3__112basic_stringIcNS_11char_traitsIcEENS_9allocatorIcEEE16__get_short_sizeB8ue170006Ev, symObjAddr: 0x3920, symBinAddr: 0x100006D10, symSize: 0x34 }
  - { offsetInCU: 0xDE41, offset: 0xDE41, size: 0x8, addend: 0x0, symName: __ZNKSt3__117__compressed_pairINS_12basic_stringIcNS_11char_traitsIcEENS_9allocatorIcEEE5__repES5_E5firstB8ue170006Ev, symObjAddr: 0x3954, symBinAddr: 0x100006D44, symSize: 0x24 }
  - { offsetInCU: 0xDE66, offset: 0xDE66, size: 0x8, addend: 0x0, symName: __ZNKSt3__122__compressed_pair_elemINS_12basic_stringIcNS_11char_traitsIcEENS_9allocatorIcEEE5__repELi0ELb0EE5__getB8ue170006Ev, symObjAddr: 0x3978, symBinAddr: 0x100006D68, symSize: 0x14 }
  - { offsetInCU: 0xDE8B, offset: 0xDE8B, size: 0x8, addend: 0x0, symName: __ZNKSt3__112basic_stringIcNS_11char_traitsIcEENS_9allocatorIcEEE13__get_pointerB8ue170006Ev, symObjAddr: 0x39A0, symBinAddr: 0x100006D90, symSize: 0x54 }
  - { offsetInCU: 0xDEB0, offset: 0xDEB0, size: 0x8, addend: 0x0, symName: __ZNKSt3__112basic_stringIcNS_11char_traitsIcEENS_9allocatorIcEEE18__get_long_pointerB8ue170006Ev, symObjAddr: 0x39F4, symBinAddr: 0x100006DE4, symSize: 0x28 }
  - { offsetInCU: 0xDED5, offset: 0xDED5, size: 0x8, addend: 0x0, symName: __ZNKSt3__112basic_stringIcNS_11char_traitsIcEENS_9allocatorIcEEE19__get_short_pointerB8ue170006Ev, symObjAddr: 0x3A1C, symBinAddr: 0x100006E0C, symSize: 0x28 }
  - { offsetInCU: 0xDEFA, offset: 0xDEFA, size: 0x8, addend: 0x0, symName: __ZNSt3__114pointer_traitsIPKcE10pointer_toB8ue170006ERS1_, symObjAddr: 0x3A44, symBinAddr: 0x100006E34, symSize: 0x14 }
  - { offsetInCU: 0xDF1D, offset: 0xDF1D, size: 0x8, addend: 0x0, symName: __ZNSt3__111char_traitsIcE6assignB8ue170006ERcRKc, symObjAddr: 0x3A58, symBinAddr: 0x100006E48, symSize: 0x24 }
  - { offsetInCU: 0xDF4E, offset: 0xDF4E, size: 0x8, addend: 0x0, symName: __ZNSt3__112basic_stringIcNS_11char_traitsIcEENS_9allocatorIcEEE18__get_long_pointerB8ue170006Ev, symObjAddr: 0x3A7C, symBinAddr: 0x100006E6C, symSize: 0x28 }
  - { offsetInCU: 0xDF73, offset: 0xDF73, size: 0x8, addend: 0x0, symName: __ZNSt3__112basic_stringIcNS_11char_traitsIcEENS_9allocatorIcEEE15__set_long_sizeB8ue170006Em, symObjAddr: 0x3AA4, symBinAddr: 0x100006E94, symSize: 0x38 }
  - { offsetInCU: 0xDFA7, offset: 0xDFA7, size: 0x8, addend: 0x0, symName: __ZNSt3__112basic_stringIcNS_11char_traitsIcEENS_9allocatorIcEEE19__get_short_pointerB8ue170006Ev, symObjAddr: 0x3ADC, symBinAddr: 0x100006ECC, symSize: 0x28 }
  - { offsetInCU: 0xDFCC, offset: 0xDFCC, size: 0x8, addend: 0x0, symName: __ZNSt3__112basic_stringIcNS_11char_traitsIcEENS_9allocatorIcEEE16__set_short_sizeB8ue170006Em, symObjAddr: 0x3B04, symBinAddr: 0x100006EF4, symSize: 0x78 }
  - { offsetInCU: 0xE000, offset: 0xE000, size: 0x8, addend: 0x0, symName: __ZNSt3__117__compressed_pairINS_12basic_stringIcNS_11char_traitsIcEENS_9allocatorIcEEE5__repES5_E5firstB8ue170006Ev, symObjAddr: 0x3B7C, symBinAddr: 0x100006F6C, symSize: 0x24 }
  - { offsetInCU: 0xE025, offset: 0xE025, size: 0x8, addend: 0x0, symName: __ZNSt3__122__compressed_pair_elemINS_12basic_stringIcNS_11char_traitsIcEENS_9allocatorIcEEE5__repELi0ELb0EE5__getB8ue170006Ev, symObjAddr: 0x3BA0, symBinAddr: 0x100006F90, symSize: 0x14 }
  - { offsetInCU: 0xE04A, offset: 0xE04A, size: 0x8, addend: 0x0, symName: __ZNSt3__114pointer_traitsIPcE10pointer_toB8ue170006ERc, symObjAddr: 0x3BB4, symBinAddr: 0x100006FA4, symSize: 0x14 }
  - { offsetInCU: 0xE06D, offset: 0xE06D, size: 0x8, addend: 0x0, symName: __ZNSt3__16vectorINS_12basic_stringIcNS_11char_traitsIcEENS_9allocatorIcEEEENS4_IS6_EEEC2B8ue170006Ev, symObjAddr: 0x3BC8, symBinAddr: 0x100006FB8, symSize: 0x44 }
  - { offsetInCU: 0xE09B, offset: 0xE09B, size: 0x8, addend: 0x0, symName: __ZNSt3__117__compressed_pairIPNS_12basic_stringIcNS_11char_traitsIcEENS_9allocatorIcEEEENS4_IS6_EEEC1B8ue170006IDnNS_18__default_init_tagEEEOT_OT0_, symObjAddr: 0x3C0C, symBinAddr: 0x100006FFC, symSize: 0x3C }
  - { offsetInCU: 0xE0F2, offset: 0xE0F2, size: 0x8, addend: 0x0, symName: __ZNSt3__117__compressed_pairIPNS_12basic_stringIcNS_11char_traitsIcEENS_9allocatorIcEEEENS4_IS6_EEEC2B8ue170006IDnNS_18__default_init_tagEEEOT_OT0_, symObjAddr: 0x3C48, symBinAddr: 0x100007038, symSize: 0x40 }
  - { offsetInCU: 0xE149, offset: 0xE149, size: 0x8, addend: 0x0, symName: __ZNSt3__122__compressed_pair_elemIPNS_12basic_stringIcNS_11char_traitsIcEENS_9allocatorIcEEEELi0ELb0EEC2B8ue170006IDnvEEOT_, symObjAddr: 0x3C88, symBinAddr: 0x100007078, symSize: 0x1C }
  - { offsetInCU: 0xE18A, offset: 0xE18A, size: 0x8, addend: 0x0, symName: __ZNSt3__122__compressed_pair_elemINS_9allocatorINS_12basic_stringIcNS_11char_traitsIcEENS1_IcEEEEEELi1ELb1EEC2B8ue170006ENS_18__default_init_tagE, symObjAddr: 0x3CA4, symBinAddr: 0x100007094, symSize: 0x2C }
  - { offsetInCU: 0xE1BD, offset: 0xE1BD, size: 0x8, addend: 0x0, symName: __ZNSt3__19allocatorINS_12basic_stringIcNS_11char_traitsIcEENS0_IcEEEEEC2B8ue170006Ev, symObjAddr: 0x3CD0, symBinAddr: 0x1000070C0, symSize: 0x2C }
  - { offsetInCU: 0xE1E6, offset: 0xE1E6, size: 0x8, addend: 0x0, symName: __ZNSt3__116__non_trivial_ifILb1ENS_9allocatorINS_12basic_stringIcNS_11char_traitsIcEENS1_IcEEEEEEEC2B8ue170006Ev, symObjAddr: 0x3CFC, symBinAddr: 0x1000070EC, symSize: 0x14 }
  - { offsetInCU: 0xE20E, offset: 0xE20E, size: 0x8, addend: 0x0, symName: __ZNSt3__16vectorINS_12basic_stringIcNS_11char_traitsIcEENS_9allocatorIcEEEENS4_IS6_EEE9push_backB8ue170006EOS6_, symObjAddr: 0x3D10, symBinAddr: 0x100007100, symSize: 0x6C }
  - { offsetInCU: 0xE244, offset: 0xE244, size: 0x8, addend: 0x0, symName: __ZNSt3__112basic_stringIcNS_11char_traitsIcEENS_9allocatorIcEEEC1B8ue170006EPKcm, symObjAddr: 0x3D7C, symBinAddr: 0x10000716C, symSize: 0x3C }
  - { offsetInCU: 0xE28B, offset: 0xE28B, size: 0x8, addend: 0x0, symName: __ZNSt3__16vectorINS_12basic_stringIcNS_11char_traitsIcEENS_9allocatorIcEEEENS4_IS6_EEE9__end_capB8ue170006Ev, symObjAddr: 0x3DB8, symBinAddr: 0x1000071A8, symSize: 0x28 }
  - { offsetInCU: 0xE2B5, offset: 0xE2B5, size: 0x8, addend: 0x0, symName: __ZNSt3__16vectorINS_12basic_stringIcNS_11char_traitsIcEENS_9allocatorIcEEEENS4_IS6_EEE22__construct_one_at_endB8ue170006IJS6_EEEvDpOT_, symObjAddr: 0x3DE0, symBinAddr: 0x1000071D0, symSize: 0x98 }
  - { offsetInCU: 0xE302, offset: 0xE302, size: 0x8, addend: 0x0, symName: __ZNSt3__16vectorINS_12basic_stringIcNS_11char_traitsIcEENS_9allocatorIcEEEENS4_IS6_EEE21__push_back_slow_pathIS6_EEvOT_, symObjAddr: 0x3E78, symBinAddr: 0x100007268, symSize: 0xE0 }
  - { offsetInCU: 0xE35F, offset: 0xE35F, size: 0x8, addend: 0x0, symName: __ZNSt3__117__compressed_pairIPNS_12basic_stringIcNS_11char_traitsIcEENS_9allocatorIcEEEENS4_IS6_EEE5firstB8ue170006Ev, symObjAddr: 0x3F58, symBinAddr: 0x100007348, symSize: 0x24 }
  - { offsetInCU: 0xE384, offset: 0xE384, size: 0x8, addend: 0x0, symName: __ZNSt3__122__compressed_pair_elemIPNS_12basic_stringIcNS_11char_traitsIcEENS_9allocatorIcEEEELi0ELb0EE5__getB8ue170006Ev, symObjAddr: 0x3F7C, symBinAddr: 0x10000736C, symSize: 0x14 }
  - { offsetInCU: 0xE3C2, offset: 0xE3C2, size: 0x8, addend: 0x0, symName: __ZNSt3__16vectorINS_12basic_stringIcNS_11char_traitsIcEENS_9allocatorIcEEEENS4_IS6_EEE21_ConstructTransactionC1B8ue170006ERS8_m, symObjAddr: 0x3F90, symBinAddr: 0x100007380, symSize: 0x3C }
  - { offsetInCU: 0xE409, offset: 0xE409, size: 0x8, addend: 0x0, symName: __ZNSt3__116allocator_traitsINS_9allocatorINS_12basic_stringIcNS_11char_traitsIcEENS1_IcEEEEEEE9constructB8ue170006IS6_JS6_EvEEvRS7_PT_DpOT0_, symObjAddr: 0x3FCC, symBinAddr: 0x1000073BC, symSize: 0x34 }
  - { offsetInCU: 0xE460, offset: 0xE460, size: 0x8, addend: 0x0, symName: __ZNSt3__16vectorINS_12basic_stringIcNS_11char_traitsIcEENS_9allocatorIcEEEENS4_IS6_EEE7__allocB8ue170006Ev, symObjAddr: 0x4000, symBinAddr: 0x1000073F0, symSize: 0x28 }
  - { offsetInCU: 0xE485, offset: 0xE485, size: 0x8, addend: 0x0, symName: __ZNSt3__16vectorINS_12basic_stringIcNS_11char_traitsIcEENS_9allocatorIcEEEENS4_IS6_EEE21_ConstructTransactionD1B8ue170006Ev, symObjAddr: 0x403C, symBinAddr: 0x10000742C, symSize: 0x2C }
  - { offsetInCU: 0xE4AE, offset: 0xE4AE, size: 0x8, addend: 0x0, symName: __ZNSt3__16vectorINS_12basic_stringIcNS_11char_traitsIcEENS_9allocatorIcEEEENS4_IS6_EEE21_ConstructTransactionC2B8ue170006ERS8_m, symObjAddr: 0x4068, symBinAddr: 0x100007458, symSize: 0x4C }
  - { offsetInCU: 0xE4F5, offset: 0xE4F5, size: 0x8, addend: 0x0, symName: __ZNSt3__19allocatorINS_12basic_stringIcNS_11char_traitsIcEENS0_IcEEEEE9constructB8ue170006IS5_JS5_EEEvPT_DpOT0_, symObjAddr: 0x40B4, symBinAddr: 0x1000074A4, symSize: 0x30 }
  - { offsetInCU: 0xE54A, offset: 0xE54A, size: 0x8, addend: 0x0, symName: __ZNSt3__117__compressed_pairIPNS_12basic_stringIcNS_11char_traitsIcEENS_9allocatorIcEEEENS4_IS6_EEE6secondB8ue170006Ev, symObjAddr: 0x40E4, symBinAddr: 0x1000074D4, symSize: 0x24 }
  - { offsetInCU: 0xE56F, offset: 0xE56F, size: 0x8, addend: 0x0, symName: __ZNSt3__122__compressed_pair_elemINS_9allocatorINS_12basic_stringIcNS_11char_traitsIcEENS1_IcEEEEEELi1ELb1EE5__getB8ue170006Ev, symObjAddr: 0x4108, symBinAddr: 0x1000074F8, symSize: 0x14 }
  - { offsetInCU: 0xE594, offset: 0xE594, size: 0x8, addend: 0x0, symName: __ZNSt3__16vectorINS_12basic_stringIcNS_11char_traitsIcEENS_9allocatorIcEEEENS4_IS6_EEE21_ConstructTransactionD2B8ue170006Ev, symObjAddr: 0x411C, symBinAddr: 0x10000750C, symSize: 0x20 }
  - { offsetInCU: 0xE5BC, offset: 0xE5BC, size: 0x8, addend: 0x0, symName: __ZNKSt3__16vectorINS_12basic_stringIcNS_11char_traitsIcEENS_9allocatorIcEEEENS4_IS6_EEE11__recommendB8ue170006Em, symObjAddr: 0x413C, symBinAddr: 0x10000752C, symSize: 0xB4 }
  - { offsetInCU: 0xE610, offset: 0xE610, size: 0x8, addend: 0x0, symName: __ZNKSt3__16vectorINS_12basic_stringIcNS_11char_traitsIcEENS_9allocatorIcEEEENS4_IS6_EEE4sizeB8ue170006Ev, symObjAddr: 0x41F0, symBinAddr: 0x1000075E0, symSize: 0x28 }
  - { offsetInCU: 0xE635, offset: 0xE635, size: 0x8, addend: 0x0, symName: __ZNSt3__114__split_bufferINS_12basic_stringIcNS_11char_traitsIcEENS_9allocatorIcEEEERNS4_IS6_EEEC1EmmS8_, symObjAddr: 0x4218, symBinAddr: 0x100007608, symSize: 0x44 }
  - { offsetInCU: 0xE68A, offset: 0xE68A, size: 0x8, addend: 0x0, symName: __ZNSt3__114__split_bufferINS_12basic_stringIcNS_11char_traitsIcEENS_9allocatorIcEEEERNS4_IS6_EEED1Ev, symObjAddr: 0x436C, symBinAddr: 0x10000775C, symSize: 0x2C }
  - { offsetInCU: 0xE6B4, offset: 0xE6B4, size: 0x8, addend: 0x0, symName: __ZNKSt3__16vectorINS_12basic_stringIcNS_11char_traitsIcEENS_9allocatorIcEEEENS4_IS6_EEE8max_sizeEv, symObjAddr: 0x4398, symBinAddr: 0x100007788, symSize: 0x74 }
  - { offsetInCU: 0xE6DB, offset: 0xE6DB, size: 0x8, addend: 0x0, symName: __ZNKSt3__16vectorINS_12basic_stringIcNS_11char_traitsIcEENS_9allocatorIcEEEENS4_IS6_EEE20__throw_length_errorB8ue170006Ev, symObjAddr: 0x440C, symBinAddr: 0x1000077FC, symSize: 0x1C }
  - { offsetInCU: 0xE700, offset: 0xE700, size: 0x8, addend: 0x0, symName: __ZNKSt3__16vectorINS_12basic_stringIcNS_11char_traitsIcEENS_9allocatorIcEEEENS4_IS6_EEE8capacityB8ue170006Ev, symObjAddr: 0x4428, symBinAddr: 0x100007818, symSize: 0x40 }
  - { offsetInCU: 0xE72F, offset: 0xE72F, size: 0x8, addend: 0x0, symName: __ZNSt3__116allocator_traitsINS_9allocatorINS_12basic_stringIcNS_11char_traitsIcEENS1_IcEEEEEEE8max_sizeB8ue170006IS7_vEEmRKS7_, symObjAddr: 0x4468, symBinAddr: 0x100007858, symSize: 0x24 }
  - { offsetInCU: 0xE75D, offset: 0xE75D, size: 0x8, addend: 0x0, symName: __ZNKSt3__16vectorINS_12basic_stringIcNS_11char_traitsIcEENS_9allocatorIcEEEENS4_IS6_EEE7__allocB8ue170006Ev, symObjAddr: 0x448C, symBinAddr: 0x10000787C, symSize: 0x28 }
  - { offsetInCU: 0xE782, offset: 0xE782, size: 0x8, addend: 0x0, symName: __ZNKSt3__19allocatorINS_12basic_stringIcNS_11char_traitsIcEENS0_IcEEEEE8max_sizeB8ue170006Ev, symObjAddr: 0x44B4, symBinAddr: 0x1000078A4, symSize: 0x18 }
  - { offsetInCU: 0xE7A7, offset: 0xE7A7, size: 0x8, addend: 0x0, symName: __ZNKSt3__117__compressed_pairIPNS_12basic_stringIcNS_11char_traitsIcEENS_9allocatorIcEEEENS4_IS6_EEE6secondB8ue170006Ev, symObjAddr: 0x44CC, symBinAddr: 0x1000078BC, symSize: 0x24 }
  - { offsetInCU: 0xE7CC, offset: 0xE7CC, size: 0x8, addend: 0x0, symName: __ZNKSt3__122__compressed_pair_elemINS_9allocatorINS_12basic_stringIcNS_11char_traitsIcEENS1_IcEEEEEELi1ELb1EE5__getB8ue170006Ev, symObjAddr: 0x44F0, symBinAddr: 0x1000078E0, symSize: 0x14 }
  - { offsetInCU: 0xE7F1, offset: 0xE7F1, size: 0x8, addend: 0x0, symName: __ZNKSt3__16vectorINS_12basic_stringIcNS_11char_traitsIcEENS_9allocatorIcEEEENS4_IS6_EEE9__end_capB8ue170006Ev, symObjAddr: 0x4504, symBinAddr: 0x1000078F4, symSize: 0x28 }
  - { offsetInCU: 0xE816, offset: 0xE816, size: 0x8, addend: 0x0, symName: __ZNKSt3__117__compressed_pairIPNS_12basic_stringIcNS_11char_traitsIcEENS_9allocatorIcEEEENS4_IS6_EEE5firstB8ue170006Ev, symObjAddr: 0x452C, symBinAddr: 0x10000791C, symSize: 0x24 }
  - { offsetInCU: 0xE83B, offset: 0xE83B, size: 0x8, addend: 0x0, symName: __ZNKSt3__122__compressed_pair_elemIPNS_12basic_stringIcNS_11char_traitsIcEENS_9allocatorIcEEEELi0ELb0EE5__getB8ue170006Ev, symObjAddr: 0x4550, symBinAddr: 0x100007940, symSize: 0x14 }
  - { offsetInCU: 0xE860, offset: 0xE860, size: 0x8, addend: 0x0, symName: __ZNSt3__114__split_bufferINS_12basic_stringIcNS_11char_traitsIcEENS_9allocatorIcEEEERNS4_IS6_EEEC2EmmS8_, symObjAddr: 0x4564, symBinAddr: 0x100007954, symSize: 0xE0 }
  - { offsetInCU: 0xE8D3, offset: 0xE8D3, size: 0x8, addend: 0x0, symName: __ZNSt3__117__compressed_pairIPNS_12basic_stringIcNS_11char_traitsIcEENS_9allocatorIcEEEERNS4_IS6_EEEC1B8ue170006IDnS9_EEOT_OT0_, symObjAddr: 0x4644, symBinAddr: 0x100007A34, symSize: 0x3C }
  - { offsetInCU: 0xE92A, offset: 0xE92A, size: 0x8, addend: 0x0, symName: __ZNSt3__114__split_bufferINS_12basic_stringIcNS_11char_traitsIcEENS_9allocatorIcEEEERNS4_IS6_EEE7__allocB8ue170006Ev, symObjAddr: 0x46C0, symBinAddr: 0x100007AB0, symSize: 0x28 }
  - { offsetInCU: 0xE94F, offset: 0xE94F, size: 0x8, addend: 0x0, symName: __ZNSt3__114__split_bufferINS_12basic_stringIcNS_11char_traitsIcEENS_9allocatorIcEEEERNS4_IS6_EEE9__end_capB8ue170006Ev, symObjAddr: 0x46E8, symBinAddr: 0x100007AD8, symSize: 0x28 }
  - { offsetInCU: 0xE974, offset: 0xE974, size: 0x8, addend: 0x0, symName: __ZNSt3__117__compressed_pairIPNS_12basic_stringIcNS_11char_traitsIcEENS_9allocatorIcEEEERNS4_IS6_EEEC2B8ue170006IDnS9_EEOT_OT0_, symObjAddr: 0x4710, symBinAddr: 0x100007B00, symSize: 0x48 }
  - { offsetInCU: 0xE9CB, offset: 0xE9CB, size: 0x8, addend: 0x0, symName: __ZNSt3__122__compressed_pair_elemIRNS_9allocatorINS_12basic_stringIcNS_11char_traitsIcEENS1_IcEEEEEELi1ELb0EEC2B8ue170006IS8_vEEOT_, symObjAddr: 0x4758, symBinAddr: 0x100007B48, symSize: 0x20 }
  - { offsetInCU: 0xEA0C, offset: 0xEA0C, size: 0x8, addend: 0x0, symName: __ZNSt3__19allocatorINS_12basic_stringIcNS_11char_traitsIcEENS0_IcEEEEE8allocateB8ue170006Em, symObjAddr: 0x4778, symBinAddr: 0x100007B68, symSize: 0x8C }
  - { offsetInCU: 0xEA3F, offset: 0xEA3F, size: 0x8, addend: 0x0, symName: __ZNSt3__117__compressed_pairIPNS_12basic_stringIcNS_11char_traitsIcEENS_9allocatorIcEEEERNS4_IS6_EEE6secondB8ue170006Ev, symObjAddr: 0x4804, symBinAddr: 0x100007BF4, symSize: 0x28 }
  - { offsetInCU: 0xEA64, offset: 0xEA64, size: 0x8, addend: 0x0, symName: __ZNSt3__122__compressed_pair_elemIRNS_9allocatorINS_12basic_stringIcNS_11char_traitsIcEENS1_IcEEEEEELi1ELb0EE5__getB8ue170006Ev, symObjAddr: 0x482C, symBinAddr: 0x100007C1C, symSize: 0x18 }
  - { offsetInCU: 0xEA89, offset: 0xEA89, size: 0x8, addend: 0x0, symName: __ZNSt3__117__compressed_pairIPNS_12basic_stringIcNS_11char_traitsIcEENS_9allocatorIcEEEERNS4_IS6_EEE5firstB8ue170006Ev, symObjAddr: 0x4844, symBinAddr: 0x100007C34, symSize: 0x24 }
  - { offsetInCU: 0xEAAE, offset: 0xEAAE, size: 0x8, addend: 0x0, symName: __ZNKSt3__16vectorINS_12basic_stringIcNS_11char_traitsIcEENS_9allocatorIcEEEENS4_IS6_EEE17__annotate_deleteB8ue170006Ev, symObjAddr: 0x4868, symBinAddr: 0x100007C58, symSize: 0xD4 }
  - { offsetInCU: 0xEAD3, offset: 0xEAD3, size: 0x8, addend: 0x0, symName: __ZNSt3__116reverse_iteratorIPNS_12basic_stringIcNS_11char_traitsIcEENS_9allocatorIcEEEEEC1B8ue170006ES7_, symObjAddr: 0x4A70, symBinAddr: 0x100007E60, symSize: 0x34 }
  - { offsetInCU: 0xEB0A, offset: 0xEB0A, size: 0x8, addend: 0x0, symName: __ZNKSt3__116reverse_iteratorIPNS_12basic_stringIcNS_11char_traitsIcEENS_9allocatorIcEEEEE4baseB8ue170006Ev, symObjAddr: 0x4AA4, symBinAddr: 0x100007E94, symSize: 0x18 }
  - { offsetInCU: 0xEB2F, offset: 0xEB2F, size: 0x8, addend: 0x0, symName: __ZNKSt3__16vectorINS_12basic_stringIcNS_11char_traitsIcEENS_9allocatorIcEEEENS4_IS6_EEE14__annotate_newB8ue170006Em, symObjAddr: 0x4AF8, symBinAddr: 0x100007EE8, symSize: 0xC8 }
  - { offsetInCU: 0xEB63, offset: 0xEB63, size: 0x8, addend: 0x0, symName: __ZNKSt3__16vectorINS_12basic_stringIcNS_11char_traitsIcEENS_9allocatorIcEEEENS4_IS6_EEE31__annotate_contiguous_containerB8ue170006EPKvSA_SA_SA_, symObjAddr: 0x4BC0, symBinAddr: 0x100007FB0, symSize: 0x20 }
  - { offsetInCU: 0xEBB4, offset: 0xEBB4, size: 0x8, addend: 0x0, symName: __ZNKSt3__16vectorINS_12basic_stringIcNS_11char_traitsIcEENS_9allocatorIcEEEENS4_IS6_EEE4dataB8ue170006Ev, symObjAddr: 0x4BE0, symBinAddr: 0x100007FD0, symSize: 0x28 }
  - { offsetInCU: 0xEBD9, offset: 0xEBD9, size: 0x8, addend: 0x0, symName: __ZNSt3__129_AllocatorDestroyRangeReverseINS_9allocatorINS_12basic_stringIcNS_11char_traitsIcEENS1_IcEEEEEENS_16reverse_iteratorIPS6_EEEC1B8ue170006ERS7_RSA_SD_, symObjAddr: 0x4C54, symBinAddr: 0x100008044, symSize: 0x44 }
  - { offsetInCU: 0xEC2F, offset: 0xEC2F, size: 0x8, addend: 0x0, symName: __ZNSt3__116allocator_traitsINS_9allocatorINS_12basic_stringIcNS_11char_traitsIcEENS1_IcEEEEEEE9constructB8ue170006IS6_JRKS6_EvEEvRS7_PT_DpOT0_, symObjAddr: 0x4CE0, symBinAddr: 0x1000080D0, symSize: 0x34 }
  - { offsetInCU: 0xEC86, offset: 0xEC86, size: 0x8, addend: 0x0, symName: __ZNKSt3__116reverse_iteratorIPNS_12basic_stringIcNS_11char_traitsIcEENS_9allocatorIcEEEEEdeB8ue170006Ev, symObjAddr: 0x4D38, symBinAddr: 0x100008128, symSize: 0x28 }
  - { offsetInCU: 0xECB9, offset: 0xECB9, size: 0x8, addend: 0x0, symName: __ZNSt3__116reverse_iteratorIPNS_12basic_stringIcNS_11char_traitsIcEENS_9allocatorIcEEEEEppB8ue170006Ev, symObjAddr: 0x4D60, symBinAddr: 0x100008150, symSize: 0x20 }
  - { offsetInCU: 0xECDE, offset: 0xECDE, size: 0x8, addend: 0x0, symName: __ZNSt3__128__exception_guard_exceptionsINS_29_AllocatorDestroyRangeReverseINS_9allocatorINS_12basic_stringIcNS_11char_traitsIcEENS2_IcEEEEEENS_16reverse_iteratorIPS7_EEEEE10__completeB8ue170006Ev, symObjAddr: 0x4D80, symBinAddr: 0x100008170, symSize: 0x1C }
  - { offsetInCU: 0xED03, offset: 0xED03, size: 0x8, addend: 0x0, symName: __ZNSt3__128__exception_guard_exceptionsINS_29_AllocatorDestroyRangeReverseINS_9allocatorINS_12basic_stringIcNS_11char_traitsIcEENS2_IcEEEEEENS_16reverse_iteratorIPS7_EEEEED1B8ue170006Ev, symObjAddr: 0x4D9C, symBinAddr: 0x10000818C, symSize: 0x2C }
  - { offsetInCU: 0xED2C, offset: 0xED2C, size: 0x8, addend: 0x0, symName: __ZNSt3__128__exception_guard_exceptionsINS_29_AllocatorDestroyRangeReverseINS_9allocatorINS_12basic_stringIcNS_11char_traitsIcEENS2_IcEEEEEENS_16reverse_iteratorIPS7_EEEEEC1B8ue170006ESC_, symObjAddr: 0x4DC8, symBinAddr: 0x1000081B8, symSize: 0x34 }
  - { offsetInCU: 0xED64, offset: 0xED64, size: 0x8, addend: 0x0, symName: __ZNSt3__128__exception_guard_exceptionsINS_29_AllocatorDestroyRangeReverseINS_9allocatorINS_12basic_stringIcNS_11char_traitsIcEENS2_IcEEEEEENS_16reverse_iteratorIPS7_EEEEEC2B8ue170006ESC_, symObjAddr: 0x4DFC, symBinAddr: 0x1000081EC, symSize: 0x30 }
  - { offsetInCU: 0xED9C, offset: 0xED9C, size: 0x8, addend: 0x0, symName: __ZNSt3__129_AllocatorDestroyRangeReverseINS_9allocatorINS_12basic_stringIcNS_11char_traitsIcEENS1_IcEEEEEENS_16reverse_iteratorIPS6_EEEC2B8ue170006ERS7_RSA_SD_, symObjAddr: 0x4E2C, symBinAddr: 0x10000821C, symSize: 0x38 }
  - { offsetInCU: 0xEDF2, offset: 0xEDF2, size: 0x8, addend: 0x0, symName: __ZNSt3__19allocatorINS_12basic_stringIcNS_11char_traitsIcEENS0_IcEEEEE9constructB8ue170006IS5_JRKS5_EEEvPT_DpOT0_, symObjAddr: 0x4E64, symBinAddr: 0x100008254, symSize: 0x30 }
  - { offsetInCU: 0xEE4C, offset: 0xEE4C, size: 0x8, addend: 0x0, symName: __ZNSt3__119__to_address_helperINS_16reverse_iteratorIPNS_12basic_stringIcNS_11char_traitsIcEENS_9allocatorIcEEEEEEvE6__callB8ue170006ERKS9_, symObjAddr: 0x4E94, symBinAddr: 0x100008284, symSize: 0x4C }
  - { offsetInCU: 0xEE6F, offset: 0xEE6F, size: 0x8, addend: 0x0, symName: __ZNKSt3__116reverse_iteratorIPNS_12basic_stringIcNS_11char_traitsIcEENS_9allocatorIcEEEEEptB8ue170006Ev, symObjAddr: 0x4EE0, symBinAddr: 0x1000082D0, symSize: 0x24 }
  - { offsetInCU: 0xEE94, offset: 0xEE94, size: 0x8, addend: 0x0, symName: __ZNSt3__128__exception_guard_exceptionsINS_29_AllocatorDestroyRangeReverseINS_9allocatorINS_12basic_stringIcNS_11char_traitsIcEENS2_IcEEEEEENS_16reverse_iteratorIPS7_EEEEED2B8ue170006Ev, symObjAddr: 0x4F04, symBinAddr: 0x1000082F4, symSize: 0x48 }
  - { offsetInCU: 0xEEBD, offset: 0xEEBD, size: 0x8, addend: 0x0, symName: __ZNKSt3__129_AllocatorDestroyRangeReverseINS_9allocatorINS_12basic_stringIcNS_11char_traitsIcEENS1_IcEEEEEENS_16reverse_iteratorIPS6_EEEclB8ue170006Ev, symObjAddr: 0x4F4C, symBinAddr: 0x10000833C, symSize: 0xB4 }
  - { offsetInCU: 0xEEE3, offset: 0xEEE3, size: 0x8, addend: 0x0, symName: __ZNSt3__116reverse_iteratorINS0_IPNS_12basic_stringIcNS_11char_traitsIcEENS_9allocatorIcEEEEEEEC1B8ue170006ES8_, symObjAddr: 0x5070, symBinAddr: 0x100008460, symSize: 0x3C }
  - { offsetInCU: 0xEF1A, offset: 0xEF1A, size: 0x8, addend: 0x0, symName: __ZNSt3__116allocator_traitsINS_9allocatorINS_12basic_stringIcNS_11char_traitsIcEENS1_IcEEEEEEE7destroyB8ue170006IS6_vEEvRS7_PT_, symObjAddr: 0x510C, symBinAddr: 0x1000084FC, symSize: 0x2C }
  - { offsetInCU: 0xEF57, offset: 0xEF57, size: 0x8, addend: 0x0, symName: __ZNSt3__116reverse_iteratorINS0_IPNS_12basic_stringIcNS_11char_traitsIcEENS_9allocatorIcEEEEEEEppB8ue170006Ev, symObjAddr: 0x515C, symBinAddr: 0x10000854C, symSize: 0x30 }
  - { offsetInCU: 0xEF7C, offset: 0xEF7C, size: 0x8, addend: 0x0, symName: __ZNKSt3__116reverse_iteratorINS0_IPNS_12basic_stringIcNS_11char_traitsIcEENS_9allocatorIcEEEEEEE4baseB8ue170006Ev, symObjAddr: 0x518C, symBinAddr: 0x10000857C, symSize: 0x24 }
  - { offsetInCU: 0xEFA1, offset: 0xEFA1, size: 0x8, addend: 0x0, symName: __ZNSt3__19allocatorINS_12basic_stringIcNS_11char_traitsIcEENS0_IcEEEEE7destroyB8ue170006EPS5_, symObjAddr: 0x51B0, symBinAddr: 0x1000085A0, symSize: 0x28 }
  - { offsetInCU: 0xEFD9, offset: 0xEFD9, size: 0x8, addend: 0x0, symName: __ZNSt3__119__to_address_helperINS_16reverse_iteratorINS1_IPNS_12basic_stringIcNS_11char_traitsIcEENS_9allocatorIcEEEEEEEEvE6__callB8ue170006ERKSA_, symObjAddr: 0x51D8, symBinAddr: 0x1000085C8, symSize: 0x4C }
  - { offsetInCU: 0xEFFC, offset: 0xEFFC, size: 0x8, addend: 0x0, symName: __ZNKSt3__116reverse_iteratorINS0_IPNS_12basic_stringIcNS_11char_traitsIcEENS_9allocatorIcEEEEEEEptB8ue170006Ev, symObjAddr: 0x5224, symBinAddr: 0x100008614, symSize: 0x24 }
  - { offsetInCU: 0xF021, offset: 0xF021, size: 0x8, addend: 0x0, symName: __ZNKSt3__116reverse_iteratorINS0_IPNS_12basic_stringIcNS_11char_traitsIcEENS_9allocatorIcEEEEEEEdeB8ue170006Ev, symObjAddr: 0x5248, symBinAddr: 0x100008638, symSize: 0x34 }
  - { offsetInCU: 0xF054, offset: 0xF054, size: 0x8, addend: 0x0, symName: __ZNSt3__116reverse_iteratorIPNS_12basic_stringIcNS_11char_traitsIcEENS_9allocatorIcEEEEEmmB8ue170006Ev, symObjAddr: 0x527C, symBinAddr: 0x10000866C, symSize: 0x20 }
  - { offsetInCU: 0xF079, offset: 0xF079, size: 0x8, addend: 0x0, symName: __ZNSt3__116reverse_iteratorINS0_IPNS_12basic_stringIcNS_11char_traitsIcEENS_9allocatorIcEEEEEEEC2B8ue170006ES8_, symObjAddr: 0x529C, symBinAddr: 0x10000868C, symSize: 0x2C }
  - { offsetInCU: 0xF0B0, offset: 0xF0B0, size: 0x8, addend: 0x0, symName: __ZNSt3__116reverse_iteratorIPNS_12basic_stringIcNS_11char_traitsIcEENS_9allocatorIcEEEEEC2B8ue170006ES7_, symObjAddr: 0x52C8, symBinAddr: 0x1000086B8, symSize: 0x28 }
  - { offsetInCU: 0xF0E7, offset: 0xF0E7, size: 0x8, addend: 0x0, symName: __ZNSt3__114__split_bufferINS_12basic_stringIcNS_11char_traitsIcEENS_9allocatorIcEEEERNS4_IS6_EEED2Ev, symObjAddr: 0x52F0, symBinAddr: 0x1000086E0, symSize: 0x80 }
  - { offsetInCU: 0xF112, offset: 0xF112, size: 0x8, addend: 0x0, symName: __ZNSt3__114__split_bufferINS_12basic_stringIcNS_11char_traitsIcEENS_9allocatorIcEEEERNS4_IS6_EEE5clearB8ue170006Ev, symObjAddr: 0x5370, symBinAddr: 0x100008760, symSize: 0x28 }
  - { offsetInCU: 0xF137, offset: 0xF137, size: 0x8, addend: 0x0, symName: __ZNSt3__116allocator_traitsINS_9allocatorINS_12basic_stringIcNS_11char_traitsIcEENS1_IcEEEEEEE10deallocateB8ue170006ERS7_PS6_m, symObjAddr: 0x5398, symBinAddr: 0x100008788, symSize: 0x34 }
  - { offsetInCU: 0xF179, offset: 0xF179, size: 0x8, addend: 0x0, symName: __ZNKSt3__114__split_bufferINS_12basic_stringIcNS_11char_traitsIcEENS_9allocatorIcEEEERNS4_IS6_EEE8capacityB8ue170006Ev, symObjAddr: 0x53CC, symBinAddr: 0x1000087BC, symSize: 0x40 }
  - { offsetInCU: 0xF19E, offset: 0xF19E, size: 0x8, addend: 0x0, symName: __ZNSt3__114__split_bufferINS_12basic_stringIcNS_11char_traitsIcEENS_9allocatorIcEEEERNS4_IS6_EEE17__destruct_at_endB8ue170006EPS6_, symObjAddr: 0x540C, symBinAddr: 0x1000087FC, symSize: 0x2C }
  - { offsetInCU: 0xF1D0, offset: 0xF1D0, size: 0x8, addend: 0x0, symName: __ZNSt3__114__split_bufferINS_12basic_stringIcNS_11char_traitsIcEENS_9allocatorIcEEEERNS4_IS6_EEE17__destruct_at_endB8ue170006EPS6_NS_17integral_constantIbLb0EEE, symObjAddr: 0x5438, symBinAddr: 0x100008828, symSize: 0x94 }
  - { offsetInCU: 0xF20F, offset: 0xF20F, size: 0x8, addend: 0x0, symName: __ZNSt3__19allocatorINS_12basic_stringIcNS_11char_traitsIcEENS0_IcEEEEE10deallocateB8ue170006EPS5_m, symObjAddr: 0x54CC, symBinAddr: 0x1000088BC, symSize: 0x74 }
  - { offsetInCU: 0xF250, offset: 0xF250, size: 0x8, addend: 0x0, symName: __ZNKSt3__114__split_bufferINS_12basic_stringIcNS_11char_traitsIcEENS_9allocatorIcEEEERNS4_IS6_EEE9__end_capB8ue170006Ev, symObjAddr: 0x5540, symBinAddr: 0x100008930, symSize: 0x28 }
  - { offsetInCU: 0xF275, offset: 0xF275, size: 0x8, addend: 0x0, symName: __ZNKSt3__117__compressed_pairIPNS_12basic_stringIcNS_11char_traitsIcEENS_9allocatorIcEEEERNS4_IS6_EEE5firstB8ue170006Ev, symObjAddr: 0x5568, symBinAddr: 0x100008958, symSize: 0x24 }
  - { offsetInCU: 0xF29A, offset: 0xF29A, size: 0x8, addend: 0x0, symName: __ZNSt3__112basic_stringIcNS_11char_traitsIcEENS_9allocatorIcEEEC2B8ue170006EPKcm, symObjAddr: 0x558C, symBinAddr: 0x10000897C, symSize: 0x4C }
  - { offsetInCU: 0xF2E1, offset: 0xF2E1, size: 0x8, addend: 0x0, symName: __ZNSt3__117__compressed_pairINS_12basic_stringIcNS_11char_traitsIcEENS_9allocatorIcEEE5__repES5_EC1B8ue170006INS_18__default_init_tagESA_EEOT_OT0_, symObjAddr: 0x55D8, symBinAddr: 0x1000089C8, symSize: 0x3C }
  - { offsetInCU: 0xF338, offset: 0xF338, size: 0x8, addend: 0x0, symName: __ZNSt3__117__compressed_pairINS_12basic_stringIcNS_11char_traitsIcEENS_9allocatorIcEEE5__repES5_EC2B8ue170006INS_18__default_init_tagESA_EEOT_OT0_, symObjAddr: 0x5614, symBinAddr: 0x100008A04, symSize: 0x3C }
  - { offsetInCU: 0xF38F, offset: 0xF38F, size: 0x8, addend: 0x0, symName: __ZNSt3__122__compressed_pair_elemINS_12basic_stringIcNS_11char_traitsIcEENS_9allocatorIcEEE5__repELi0ELb0EEC2B8ue170006ENS_18__default_init_tagE, symObjAddr: 0x5650, symBinAddr: 0x100008A40, symSize: 0x14 }
  - { offsetInCU: 0xF3C2, offset: 0xF3C2, size: 0x8, addend: 0x0, symName: __ZNSt3__122__compressed_pair_elemINS_9allocatorIcEELi1ELb1EEC2B8ue170006ENS_18__default_init_tagE, symObjAddr: 0x5664, symBinAddr: 0x100008A54, symSize: 0x2C }
  - { offsetInCU: 0xF3F5, offset: 0xF3F5, size: 0x8, addend: 0x0, symName: __ZNSt3__19allocatorIcEC2B8ue170006Ev, symObjAddr: 0x5690, symBinAddr: 0x100008A80, symSize: 0x2C }
  - { offsetInCU: 0xF41E, offset: 0xF41E, size: 0x8, addend: 0x0, symName: __ZNSt3__116__non_trivial_ifILb1ENS_9allocatorIcEEEC2B8ue170006Ev, symObjAddr: 0x56BC, symBinAddr: 0x100008AAC, symSize: 0x14 }
  - { offsetInCU: 0xF447, offset: 0xF447, size: 0x8, addend: 0x0, symName: __ZNSt3__112basic_stringIcNS_11char_traitsIcEENS_9allocatorIcEEEC2B8ue170006Ev, symObjAddr: 0x56D0, symBinAddr: 0x100008AC0, symSize: 0x3C }
  - { offsetInCU: 0xF470, offset: 0xF470, size: 0x8, addend: 0x0, symName: __ZNSt3__112basic_stringIcNS_11char_traitsIcEENS_9allocatorIcEEE14__default_initB8ue170006Ev, symObjAddr: 0x570C, symBinAddr: 0x100008AFC, symSize: 0xB0 }
  - { offsetInCU: 0xF4C2, offset: 0xF4C2, size: 0x8, addend: 0x0, symName: __ZNSt3__112basic_stringIcNS_11char_traitsIcEENS_9allocatorIcEEE11__recommendB8ue170006Em, symObjAddr: 0x57BC, symBinAddr: 0x100008BAC, symSize: 0x9C }
  - { offsetInCU: 0xF4F5, offset: 0xF4F5, size: 0x8, addend: 0x0, symName: __ZNSt3__116allocator_traitsINS_9allocatorIcEEE8allocateB8ue170006ERS2_m, symObjAddr: 0x5858, symBinAddr: 0x100008C48, symSize: 0x2C }
  - { offsetInCU: 0xF528, offset: 0xF528, size: 0x8, addend: 0x0, symName: __ZNSt3__112basic_stringIcNS_11char_traitsIcEENS_9allocatorIcEEE7__allocB8ue170006Ev, symObjAddr: 0x5884, symBinAddr: 0x100008C74, symSize: 0x24 }
  - { offsetInCU: 0xF54D, offset: 0xF54D, size: 0x8, addend: 0x0, symName: __ZNSt3__112basic_stringIcNS_11char_traitsIcEENS_9allocatorIcEEE16__begin_lifetimeB8ue170006EPcm, symObjAddr: 0x58A8, symBinAddr: 0x100008C98, symSize: 0x14 }
  - { offsetInCU: 0xF580, offset: 0xF580, size: 0x8, addend: 0x0, symName: __ZNSt3__112basic_stringIcNS_11char_traitsIcEENS_9allocatorIcEEE18__set_long_pointerB8ue170006EPc, symObjAddr: 0x58BC, symBinAddr: 0x100008CAC, symSize: 0x38 }
  - { offsetInCU: 0xF5B4, offset: 0xF5B4, size: 0x8, addend: 0x0, symName: __ZNSt3__112basic_stringIcNS_11char_traitsIcEENS_9allocatorIcEEE14__set_long_capB8ue170006Em, symObjAddr: 0x58F4, symBinAddr: 0x100008CE4, symSize: 0x70 }
  - { offsetInCU: 0xF5E8, offset: 0xF5E8, size: 0x8, addend: 0x0, symName: __ZNSt3__112basic_stringIcNS_11char_traitsIcEENS_9allocatorIcEEE10__align_itB8ue170006ILm16EEEmm, symObjAddr: 0x5964, symBinAddr: 0x100008D54, symSize: 0x1C }
  - { offsetInCU: 0xF616, offset: 0xF616, size: 0x8, addend: 0x0, symName: __ZNSt3__19allocatorIcE8allocateB8ue170006Em, symObjAddr: 0x5980, symBinAddr: 0x100008D70, symSize: 0x84 }
  - { offsetInCU: 0xF653, offset: 0xF653, size: 0x8, addend: 0x0, symName: __ZNSt3__116allocator_traitsINS_9allocatorIcEEE8max_sizeB8ue170006IS2_vEEmRKS2_, symObjAddr: 0x5A04, symBinAddr: 0x100008DF4, symSize: 0x24 }
  - { offsetInCU: 0xF681, offset: 0xF681, size: 0x8, addend: 0x0, symName: __ZNKSt3__19allocatorIcE8max_sizeB8ue170006Ev, symObjAddr: 0x5A28, symBinAddr: 0x100008E18, symSize: 0x14 }
  - { offsetInCU: 0xF6A6, offset: 0xF6A6, size: 0x8, addend: 0x0, symName: __ZNSt3__117__compressed_pairINS_12basic_stringIcNS_11char_traitsIcEENS_9allocatorIcEEE5__repES5_E6secondB8ue170006Ev, symObjAddr: 0x5A3C, symBinAddr: 0x100008E2C, symSize: 0x24 }
  - { offsetInCU: 0xF6CB, offset: 0xF6CB, size: 0x8, addend: 0x0, symName: __ZNSt3__122__compressed_pair_elemINS_9allocatorIcEELi1ELb1EE5__getB8ue170006Ev, symObjAddr: 0x5A60, symBinAddr: 0x100008E50, symSize: 0x14 }
  - { offsetInCU: 0xF6F0, offset: 0xF6F0, size: 0x8, addend: 0x0, symName: __ZL6cmd_isRKNSt3__112basic_stringIcNS_11char_traitsIcEENS_9allocatorIcEEEEPKc, symObjAddr: 0x5A74, symBinAddr: 0x100008E64, symSize: 0x40 }
  - { offsetInCU: 0xF72A, offset: 0xF72A, size: 0x8, addend: 0x0, symName: __ZNSt3__16vectorINS_12basic_stringIcNS_11char_traitsIcEENS_9allocatorIcEEEENS4_IS6_EEEixB8ue170006Em, symObjAddr: 0x5AB4, symBinAddr: 0x100008EA4, symSize: 0x2C }
  - { offsetInCU: 0xF760, offset: 0xF760, size: 0x8, addend: 0x0, symName: __ZL7do_keysRNSt3__16vectorINS_12basic_stringIcNS_11char_traitsIcEENS_9allocatorIcEEEENS4_IS6_EEEERS6_, symObjAddr: 0x5AE0, symBinAddr: 0x100008ED0, symSize: 0x74 }
  - { offsetInCU: 0xF79A, offset: 0xF79A, size: 0x8, addend: 0x0, symName: __ZL6do_getRNSt3__16vectorINS_12basic_stringIcNS_11char_traitsIcEENS_9allocatorIcEEEENS4_IS6_EEEERS6_, symObjAddr: 0x5B54, symBinAddr: 0x100008F44, symSize: 0x188 }
  - { offsetInCU: 0xF821, offset: 0xF821, size: 0x8, addend: 0x0, symName: __ZL6do_setRNSt3__16vectorINS_12basic_stringIcNS_11char_traitsIcEENS_9allocatorIcEEEENS4_IS6_EEEERS6_, symObjAddr: 0x5CDC, symBinAddr: 0x1000090CC, symSize: 0x1F4 }
  - { offsetInCU: 0xF8A9, offset: 0xF8A9, size: 0x8, addend: 0x0, symName: __ZL6do_delRKNSt3__16vectorINS_12basic_stringIcNS_11char_traitsIcEENS_9allocatorIcEEEENS4_IS6_EEEERS6_, symObjAddr: 0x5ED0, symBinAddr: 0x1000092C0, symSize: 0x17C }
  - { offsetInCU: 0xF920, offset: 0xF920, size: 0x8, addend: 0x0, symName: __ZNKSt3__112basic_stringIcNS_11char_traitsIcEENS_9allocatorIcEEE5c_strB8ue170006Ev, symObjAddr: 0x604C, symBinAddr: 0x10000943C, symSize: 0x24 }
  - { offsetInCU: 0xF945, offset: 0xF945, size: 0x8, addend: 0x0, symName: __ZL7out_arrRNSt3__112basic_stringIcNS_11char_traitsIcEENS_9allocatorIcEEEEj, symObjAddr: 0x6070, symBinAddr: 0x100009460, symSize: 0x44 }
  - { offsetInCU: 0xF97F, offset: 0xF97F, size: 0x8, addend: 0x0, symName: __ZL7cb_scanP5HNodePv, symObjAddr: 0x60B4, symBinAddr: 0x1000094A4, symSize: 0x48 }
  - { offsetInCU: 0xF9E6, offset: 0xF9E6, size: 0x8, addend: 0x0, symName: __ZL7out_strRNSt3__112basic_stringIcNS_11char_traitsIcEENS_9allocatorIcEEEERKS5_, symObjAddr: 0x60FC, symBinAddr: 0x1000094EC, symSize: 0x58 }
  - { offsetInCU: 0xFA2F, offset: 0xFA2F, size: 0x8, addend: 0x0, symName: __ZNSt3__112basic_stringIcNS_11char_traitsIcEENS_9allocatorIcEEE6appendB8ue170006ERKS5_, symObjAddr: 0x6154, symBinAddr: 0x100009544, symSize: 0x4C }
  - { offsetInCU: 0xFA68, offset: 0xFA68, size: 0x8, addend: 0x0, symName: __ZN5EntryC1Ev, symObjAddr: 0x61A0, symBinAddr: 0x100009590, symSize: 0x2C }
  - { offsetInCU: 0xFA94, offset: 0xFA94, size: 0x8, addend: 0x0, symName: __ZL8str_hashPKhm, symObjAddr: 0x61CC, symBinAddr: 0x1000095BC, symSize: 0x80 }
  - { offsetInCU: 0xFAFF, offset: 0xFAFF, size: 0x8, addend: 0x0, symName: __ZL8entry_eqP5HNodeS0_, symObjAddr: 0x624C, symBinAddr: 0x10000963C, symSize: 0x68 }
  - { offsetInCU: 0xFB97, offset: 0xFB97, size: 0x8, addend: 0x0, symName: __ZL7out_nilRNSt3__112basic_stringIcNS_11char_traitsIcEENS_9allocatorIcEEEE, symObjAddr: 0x62B4, symBinAddr: 0x1000096A4, symSize: 0x28 }
  - { offsetInCU: 0xFBC2, offset: 0xFBC2, size: 0x8, addend: 0x0, symName: __ZN5EntryD1Ev, symObjAddr: 0x62DC, symBinAddr: 0x1000096CC, symSize: 0x2C }
  - { offsetInCU: 0xFBEE, offset: 0xFBEE, size: 0x8, addend: 0x0, symName: __ZN5EntryC2Ev, symObjAddr: 0x6308, symBinAddr: 0x1000096F8, symSize: 0x78 }
  - { offsetInCU: 0xFC1F, offset: 0xFC1F, size: 0x8, addend: 0x0, symName: __ZN5HNodeC1Ev, symObjAddr: 0x6380, symBinAddr: 0x100009770, symSize: 0x2C }
  - { offsetInCU: 0xFC4A, offset: 0xFC4A, size: 0x8, addend: 0x0, symName: __ZN5HNodeC2Ev, symObjAddr: 0x63AC, symBinAddr: 0x10000979C, symSize: 0x18 }
  - { offsetInCU: 0xFC75, offset: 0xFC75, size: 0x8, addend: 0x0, symName: __ZNSt3__111char_traitsIcE7compareB8ue170006EPKcS3_m, symObjAddr: 0x650C, symBinAddr: 0x1000098FC, symSize: 0x64 }
  - { offsetInCU: 0xFCB4, offset: 0xFCB4, size: 0x8, addend: 0x0, symName: __ZN5EntryD2Ev, symObjAddr: 0x6570, symBinAddr: 0x100009960, symSize: 0x6C }
  - { offsetInCU: 0xFCDF, offset: 0xFCDF, size: 0x8, addend: 0x0, symName: __ZNKSt3__16vectorINS_12basic_stringIcNS_11char_traitsIcEENS_9allocatorIcEEEENS4_IS6_EEEixB8ue170006Em, symObjAddr: 0x65DC, symBinAddr: 0x1000099CC, symSize: 0x2C }
  - { offsetInCU: 0xFD15, offset: 0xFD15, size: 0x8, addend: 0x0, symName: __ZL7out_intRNSt3__112basic_stringIcNS_11char_traitsIcEENS_9allocatorIcEEEEx, symObjAddr: 0x6608, symBinAddr: 0x1000099F8, symSize: 0x44 }
  - { offsetInCU: 0xFD4F, offset: 0xFD4F, size: 0x8, addend: 0x0, symName: __ZNSt3__112basic_stringIcNS_11char_traitsIcEENS_9allocatorIcEEEC2B8ue170006ILi0EEEPKc, symObjAddr: 0x664C, symBinAddr: 0x100009A3C, symSize: 0x58 }
  - { offsetInCU: 0xFD8D, offset: 0xFD8D, size: 0x8, addend: 0x0, symName: __ZNSt3__111char_traitsIcE6lengthB8ue170006EPKc, symObjAddr: 0x66A4, symBinAddr: 0x100009A94, symSize: 0x48 }
  - { offsetInCU: 0xFDB0, offset: 0xFDB0, size: 0x8, addend: 0x0, symName: __ZNSt3__16vectorINS_12basic_stringIcNS_11char_traitsIcEENS_9allocatorIcEEEENS4_IS6_EEED2B8ue170006Ev, symObjAddr: 0x67A4, symBinAddr: 0x100009B94, symSize: 0x3C }
  - { offsetInCU: 0xFDD9, offset: 0xFDD9, size: 0x8, addend: 0x0, symName: __ZNSt3__16vectorINS_12basic_stringIcNS_11char_traitsIcEENS_9allocatorIcEEEENS4_IS6_EEE16__destroy_vectorC1B8ue170006ERS8_, symObjAddr: 0x67E0, symBinAddr: 0x100009BD0, symSize: 0x34 }
  - { offsetInCU: 0xFE11, offset: 0xFE11, size: 0x8, addend: 0x0, symName: __ZNSt3__16vectorINS_12basic_stringIcNS_11char_traitsIcEENS_9allocatorIcEEEENS4_IS6_EEE16__destroy_vectorclB8ue170006Ev, symObjAddr: 0x6814, symBinAddr: 0x100009C04, symSize: 0x90 }
  - { offsetInCU: 0xFE36, offset: 0xFE36, size: 0x8, addend: 0x0, symName: __ZNSt3__16vectorINS_12basic_stringIcNS_11char_traitsIcEENS_9allocatorIcEEEENS4_IS6_EEE16__destroy_vectorC2B8ue170006ERS8_, symObjAddr: 0x68A4, symBinAddr: 0x100009C94, symSize: 0x20 }
  - { offsetInCU: 0xFE6E, offset: 0xFE6E, size: 0x8, addend: 0x0, symName: __ZNSt3__16vectorINS_12basic_stringIcNS_11char_traitsIcEENS_9allocatorIcEEEENS4_IS6_EEE7__clearB8ue170006Ev, symObjAddr: 0x68C4, symBinAddr: 0x100009CB4, symSize: 0x28 }
  - { offsetInCU: 0xFE93, offset: 0xFE93, size: 0x8, addend: 0x0, symName: __ZNSt3__16vectorINS_12basic_stringIcNS_11char_traitsIcEENS_9allocatorIcEEEENS4_IS6_EEE22__base_destruct_at_endB8ue170006EPS6_, symObjAddr: 0x68EC, symBinAddr: 0x100009CDC, symSize: 0xA0 }
  - { offsetInCU: 0xFED6, offset: 0xFED6, size: 0x8, addend: 0x0, symName: __ZL16try_flush_bufferP4Conn, symObjAddr: 0x698C, symBinAddr: 0x100009D7C, symSize: 0x1EC }
  - { offsetInCU: 0xFF2A, offset: 0xFF2A, size: 0x8, addend: 0x0, symName: __ZNSt3__13mapINS_12basic_stringIcNS_11char_traitsIcEENS_9allocatorIcEEEES6_NS_4lessIS6_EENS4_INS_4pairIKS6_S6_EEEEEC2B8ue170006Ev, symObjAddr: 0x6B78, symBinAddr: 0x100009F68, symSize: 0x40 }
  - { offsetInCU: 0xFF53, offset: 0xFF53, size: 0x8, addend: 0x0, symName: __ZNSt3__119__map_value_compareINS_12basic_stringIcNS_11char_traitsIcEENS_9allocatorIcEEEENS_12__value_typeIS6_S6_EENS_4lessIS6_EELb1EEC1B8ue170006ESA_, symObjAddr: 0x6BB8, symBinAddr: 0x100009FA8, symSize: 0x2C }
  - { offsetInCU: 0xFF8B, offset: 0xFF8B, size: 0x8, addend: 0x0, symName: __ZNSt3__16__treeINS_12__value_typeINS_12basic_stringIcNS_11char_traitsIcEENS_9allocatorIcEEEES7_EENS_19__map_value_compareIS7_S8_NS_4lessIS7_EELb1EEENS5_IS8_EEEC1ERKSC_, symObjAddr: 0x6BE4, symBinAddr: 0x100009FD4, symSize: 0x34 }
  - { offsetInCU: 0xFFC5, offset: 0xFFC5, size: 0x8, addend: 0x0, symName: __ZNSt3__119__map_value_compareINS_12basic_stringIcNS_11char_traitsIcEENS_9allocatorIcEEEENS_12__value_typeIS6_S6_EENS_4lessIS6_EELb1EEC2B8ue170006ESA_, symObjAddr: 0x6C18, symBinAddr: 0x10000A008, symSize: 0x14 }
  - { offsetInCU: 0xFFFD, offset: 0xFFFD, size: 0x8, addend: 0x0, symName: __ZNSt3__16__treeINS_12__value_typeINS_12basic_stringIcNS_11char_traitsIcEENS_9allocatorIcEEEES7_EENS_19__map_value_compareIS7_S8_NS_4lessIS7_EELb1EEENS5_IS8_EEEC2ERKSC_, symObjAddr: 0x6C2C, symBinAddr: 0x10000A01C, symSize: 0x70 }
  - { offsetInCU: 0x10037, offset: 0x10037, size: 0x8, addend: 0x0, symName: __ZNSt3__117__compressed_pairINS_15__tree_end_nodeIPNS_16__tree_node_baseIPvEEEENS_9allocatorINS_11__tree_nodeINS_12__value_typeINS_12basic_stringIcNS_11char_traitsIcEENS7_IcEEEESE_EES3_EEEEEC1B8ue170006ILb1EvEEv, symObjAddr: 0x6C9C, symBinAddr: 0x10000A08C, symSize: 0x2C }
  - { offsetInCU: 0x10070, offset: 0x10070, size: 0x8, addend: 0x0, symName: __ZNSt3__117__compressed_pairImNS_19__map_value_compareINS_12basic_stringIcNS_11char_traitsIcEENS_9allocatorIcEEEENS_12__value_typeIS7_S7_EENS_4lessIS7_EELb1EEEEC1B8ue170006IiRKSC_EEOT_OT0_, symObjAddr: 0x6CC8, symBinAddr: 0x10000A0B8, symSize: 0x3C }
  - { offsetInCU: 0x100C7, offset: 0x100C7, size: 0x8, addend: 0x0, symName: __ZNSt3__16__treeINS_12__value_typeINS_12basic_stringIcNS_11char_traitsIcEENS_9allocatorIcEEEES7_EENS_19__map_value_compareIS7_S8_NS_4lessIS7_EELb1EEENS5_IS8_EEE10__end_nodeB8ue170006Ev, symObjAddr: 0x6D04, symBinAddr: 0x10000A0F4, symSize: 0x2C }
  - { offsetInCU: 0x100EC, offset: 0x100EC, size: 0x8, addend: 0x0, symName: __ZNSt3__16__treeINS_12__value_typeINS_12basic_stringIcNS_11char_traitsIcEENS_9allocatorIcEEEES7_EENS_19__map_value_compareIS7_S8_NS_4lessIS7_EELb1EEENS5_IS8_EEE12__begin_nodeB8ue170006Ev, symObjAddr: 0x6D30, symBinAddr: 0x10000A120, symSize: 0x14 }
  - { offsetInCU: 0x10111, offset: 0x10111, size: 0x8, addend: 0x0, symName: __ZNSt3__117__compressed_pairINS_15__tree_end_nodeIPNS_16__tree_node_baseIPvEEEENS_9allocatorINS_11__tree_nodeINS_12__value_typeINS_12basic_stringIcNS_11char_traitsIcEENS7_IcEEEESE_EES3_EEEEEC2B8ue170006ILb1EvEEv, symObjAddr: 0x6D44, symBinAddr: 0x10000A134, symSize: 0x34 }
  - { offsetInCU: 0x10145, offset: 0x10145, size: 0x8, addend: 0x0, symName: __ZNSt3__122__compressed_pair_elemINS_15__tree_end_nodeIPNS_16__tree_node_baseIPvEEEELi0ELb0EEC2B8ue170006ENS_16__value_init_tagE, symObjAddr: 0x6D78, symBinAddr: 0x10000A168, symSize: 0x2C }
  - { offsetInCU: 0x10178, offset: 0x10178, size: 0x8, addend: 0x0, symName: __ZNSt3__122__compressed_pair_elemINS_9allocatorINS_11__tree_nodeINS_12__value_typeINS_12basic_stringIcNS_11char_traitsIcEENS1_IcEEEES8_EEPvEEEELi1ELb1EEC2B8ue170006ENS_16__value_init_tagE, symObjAddr: 0x6DA4, symBinAddr: 0x10000A194, symSize: 0x2C }
  - { offsetInCU: 0x101AB, offset: 0x101AB, size: 0x8, addend: 0x0, symName: __ZNSt3__115__tree_end_nodeIPNS_16__tree_node_baseIPvEEEC1B8ue170006Ev, symObjAddr: 0x6DD0, symBinAddr: 0x10000A1C0, symSize: 0x2C }
  - { offsetInCU: 0x101D4, offset: 0x101D4, size: 0x8, addend: 0x0, symName: __ZNSt3__115__tree_end_nodeIPNS_16__tree_node_baseIPvEEEC2B8ue170006Ev, symObjAddr: 0x6DFC, symBinAddr: 0x10000A1EC, symSize: 0x18 }
  - { offsetInCU: 0x101FD, offset: 0x101FD, size: 0x8, addend: 0x0, symName: __ZNSt3__19allocatorINS_11__tree_nodeINS_12__value_typeINS_12basic_stringIcNS_11char_traitsIcEENS0_IcEEEES7_EEPvEEEC2B8ue170006Ev, symObjAddr: 0x6E14, symBinAddr: 0x10000A204, symSize: 0x2C }
  - { offsetInCU: 0x10226, offset: 0x10226, size: 0x8, addend: 0x0, symName: __ZNSt3__116__non_trivial_ifILb1ENS_9allocatorINS_11__tree_nodeINS_12__value_typeINS_12basic_stringIcNS_11char_traitsIcEENS1_IcEEEES8_EEPvEEEEEC2B8ue170006Ev, symObjAddr: 0x6E40, symBinAddr: 0x10000A230, symSize: 0x14 }
  - { offsetInCU: 0x1024F, offset: 0x1024F, size: 0x8, addend: 0x0, symName: __ZNSt3__117__compressed_pairImNS_19__map_value_compareINS_12basic_stringIcNS_11char_traitsIcEENS_9allocatorIcEEEENS_12__value_typeIS7_S7_EENS_4lessIS7_EELb1EEEEC2B8ue170006IiRKSC_EEOT_OT0_, symObjAddr: 0x6E54, symBinAddr: 0x10000A244, symSize: 0x44 }
  - { offsetInCU: 0x102A6, offset: 0x102A6, size: 0x8, addend: 0x0, symName: __ZNSt3__122__compressed_pair_elemImLi0ELb0EEC2B8ue170006IivEEOT_, symObjAddr: 0x6E98, symBinAddr: 0x10000A288, symSize: 0x24 }
  - { offsetInCU: 0x102E7, offset: 0x102E7, size: 0x8, addend: 0x0, symName: __ZNSt3__122__compressed_pair_elemINS_19__map_value_compareINS_12basic_stringIcNS_11char_traitsIcEENS_9allocatorIcEEEENS_12__value_typeIS7_S7_EENS_4lessIS7_EELb1EEELi1ELb1EEC2B8ue170006IRKSC_vEEOT_, symObjAddr: 0x6EBC, symBinAddr: 0x10000A2AC, symSize: 0x18 }
  - { offsetInCU: 0x10328, offset: 0x10328, size: 0x8, addend: 0x0, symName: __ZNSt3__114pointer_traitsIPNS_15__tree_end_nodeIPNS_16__tree_node_baseIPvEEEEE10pointer_toB8ue170006ERS6_, symObjAddr: 0x6ED4, symBinAddr: 0x10000A2C4, symSize: 0x14 }
  - { offsetInCU: 0x1034B, offset: 0x1034B, size: 0x8, addend: 0x0, symName: __ZNSt3__117__compressed_pairINS_15__tree_end_nodeIPNS_16__tree_node_baseIPvEEEENS_9allocatorINS_11__tree_nodeINS_12__value_typeINS_12basic_stringIcNS_11char_traitsIcEENS7_IcEEEESE_EES3_EEEEE5firstB8ue170006Ev, symObjAddr: 0x6EE8, symBinAddr: 0x10000A2D8, symSize: 0x24 }
  - { offsetInCU: 0x10370, offset: 0x10370, size: 0x8, addend: 0x0, symName: __ZNSt3__122__compressed_pair_elemINS_15__tree_end_nodeIPNS_16__tree_node_baseIPvEEEELi0ELb0EE5__getB8ue170006Ev, symObjAddr: 0x6F0C, symBinAddr: 0x10000A2FC, symSize: 0x14 }
  - { offsetInCU: 0x10395, offset: 0x10395, size: 0x8, addend: 0x0, symName: __ZNSt3__13mapINS_12basic_stringIcNS_11char_traitsIcEENS_9allocatorIcEEEES6_NS_4lessIS6_EENS4_INS_4pairIKS6_S6_EEEEED2B8ue170006Ev, symObjAddr: 0x6F20, symBinAddr: 0x10000A310, symSize: 0x2C }
  - { offsetInCU: 0x103BE, offset: 0x103BE, size: 0x8, addend: 0x0, symName: __ZNSt3__16__treeINS_12__value_typeINS_12basic_stringIcNS_11char_traitsIcEENS_9allocatorIcEEEES7_EENS_19__map_value_compareIS7_S8_NS_4lessIS7_EELb1EEENS5_IS8_EEED1Ev, symObjAddr: 0x6F4C, symBinAddr: 0x10000A33C, symSize: 0x2C }
  - { offsetInCU: 0x103E9, offset: 0x103E9, size: 0x8, addend: 0x0, symName: __ZNSt3__16__treeINS_12__value_typeINS_12basic_stringIcNS_11char_traitsIcEENS_9allocatorIcEEEES7_EENS_19__map_value_compareIS7_S8_NS_4lessIS7_EELb1EEENS5_IS8_EEED2Ev, symObjAddr: 0x6F78, symBinAddr: 0x10000A368, symSize: 0x38 }
  - { offsetInCU: 0x10413, offset: 0x10413, size: 0x8, addend: 0x0, symName: __ZNSt3__16__treeINS_12__value_typeINS_12basic_stringIcNS_11char_traitsIcEENS_9allocatorIcEEEES7_EENS_19__map_value_compareIS7_S8_NS_4lessIS7_EELb1EEENS5_IS8_EEE7destroyEPNS_11__tree_nodeIS8_PvEE, symObjAddr: 0x6FB0, symBinAddr: 0x10000A3A0, symSize: 0xC0 }
  - { offsetInCU: 0x10467, offset: 0x10467, size: 0x8, addend: 0x0, symName: __ZNKSt3__16__treeINS_12__value_typeINS_12basic_stringIcNS_11char_traitsIcEENS_9allocatorIcEEEES7_EENS_19__map_value_compareIS7_S8_NS_4lessIS7_EELb1EEENS5_IS8_EEE6__rootB8ue170006Ev, symObjAddr: 0x7070, symBinAddr: 0x10000A460, symSize: 0x28 }
  - { offsetInCU: 0x1048C, offset: 0x1048C, size: 0x8, addend: 0x0, symName: __ZNSt3__16__treeINS_12__value_typeINS_12basic_stringIcNS_11char_traitsIcEENS_9allocatorIcEEEES7_EENS_19__map_value_compareIS7_S8_NS_4lessIS7_EELb1EEENS5_IS8_EEE12__node_allocB8ue170006Ev, symObjAddr: 0x7098, symBinAddr: 0x10000A488, symSize: 0x28 }
  - { offsetInCU: 0x104B6, offset: 0x104B6, size: 0x8, addend: 0x0, symName: __ZNSt3__116allocator_traitsINS_9allocatorINS_11__tree_nodeINS_12__value_typeINS_12basic_stringIcNS_11char_traitsIcEENS1_IcEEEES8_EEPvEEEEE7destroyB8ue170006INS_4pairIKS8_S8_EEvvEEvRSC_PT_, symObjAddr: 0x70C0, symBinAddr: 0x10000A4B0, symSize: 0x28 }
  - { offsetInCU: 0x104F0, offset: 0x104F0, size: 0x8, addend: 0x0, symName: __ZNSt3__122__tree_key_value_typesINS_12__value_typeINS_12basic_stringIcNS_11char_traitsIcEENS_9allocatorIcEEEES7_EEE9__get_ptrB8ue170006ERS8_, symObjAddr: 0x70E8, symBinAddr: 0x10000A4D8, symSize: 0x24 }
  - { offsetInCU: 0x10514, offset: 0x10514, size: 0x8, addend: 0x0, symName: __ZNSt3__116allocator_traitsINS_9allocatorINS_11__tree_nodeINS_12__value_typeINS_12basic_stringIcNS_11char_traitsIcEENS1_IcEEEES8_EEPvEEEEE10deallocateB8ue170006ERSC_PSB_m, symObjAddr: 0x710C, symBinAddr: 0x10000A4FC, symSize: 0x34 }
  - { offsetInCU: 0x10556, offset: 0x10556, size: 0x8, addend: 0x0, symName: __ZNSt3__117__compressed_pairINS_15__tree_end_nodeIPNS_16__tree_node_baseIPvEEEENS_9allocatorINS_11__tree_nodeINS_12__value_typeINS_12basic_stringIcNS_11char_traitsIcEENS7_IcEEEESE_EES3_EEEEE6secondB8ue170006Ev, symObjAddr: 0x7140, symBinAddr: 0x10000A530, symSize: 0x24 }
  - { offsetInCU: 0x1057B, offset: 0x1057B, size: 0x8, addend: 0x0, symName: __ZNSt3__122__compressed_pair_elemINS_9allocatorINS_11__tree_nodeINS_12__value_typeINS_12basic_stringIcNS_11char_traitsIcEENS1_IcEEEES8_EEPvEEEELi1ELb1EE5__getB8ue170006Ev, symObjAddr: 0x7164, symBinAddr: 0x10000A554, symSize: 0x14 }
  - { offsetInCU: 0x105A0, offset: 0x105A0, size: 0x8, addend: 0x0, symName: __ZNSt3__14pairIKNS_12basic_stringIcNS_11char_traitsIcEENS_9allocatorIcEEEES6_ED1Ev, symObjAddr: 0x7178, symBinAddr: 0x10000A568, symSize: 0x2C }
  - { offsetInCU: 0x105CB, offset: 0x105CB, size: 0x8, addend: 0x0, symName: __ZNSt3__14pairIKNS_12basic_stringIcNS_11char_traitsIcEENS_9allocatorIcEEEES6_ED2Ev, symObjAddr: 0x71A4, symBinAddr: 0x10000A594, symSize: 0x68 }
  - { offsetInCU: 0x105F6, offset: 0x105F6, size: 0x8, addend: 0x0, symName: __ZNSt3__112__value_typeINS_12basic_stringIcNS_11char_traitsIcEENS_9allocatorIcEEEES6_E11__get_valueB8ue170006Ev, symObjAddr: 0x720C, symBinAddr: 0x10000A5FC, symSize: 0x14 }
  - { offsetInCU: 0x1061B, offset: 0x1061B, size: 0x8, addend: 0x0, symName: __ZNSt3__19allocatorINS_11__tree_nodeINS_12__value_typeINS_12basic_stringIcNS_11char_traitsIcEENS0_IcEEEES7_EEPvEEE10deallocateB8ue170006EPSA_m, symObjAddr: 0x7220, symBinAddr: 0x10000A610, symSize: 0x74 }
  - { offsetInCU: 0x1065C, offset: 0x1065C, size: 0x8, addend: 0x0, symName: __ZNKSt3__16__treeINS_12__value_typeINS_12basic_stringIcNS_11char_traitsIcEENS_9allocatorIcEEEES7_EENS_19__map_value_compareIS7_S8_NS_4lessIS7_EELb1EEENS5_IS8_EEE10__end_nodeB8ue170006Ev, symObjAddr: 0x7294, symBinAddr: 0x10000A684, symSize: 0x2C }
  - { offsetInCU: 0x10681, offset: 0x10681, size: 0x8, addend: 0x0, symName: __ZNKSt3__117__compressed_pairINS_15__tree_end_nodeIPNS_16__tree_node_baseIPvEEEENS_9allocatorINS_11__tree_nodeINS_12__value_typeINS_12basic_stringIcNS_11char_traitsIcEENS7_IcEEEESE_EES3_EEEEE5firstB8ue170006Ev, symObjAddr: 0x72C0, symBinAddr: 0x10000A6B0, symSize: 0x24 }
  - { offsetInCU: 0x106A6, offset: 0x106A6, size: 0x8, addend: 0x0, symName: __ZNKSt3__122__compressed_pair_elemINS_15__tree_end_nodeIPNS_16__tree_node_baseIPvEEEELi0ELb0EE5__getB8ue170006Ev, symObjAddr: 0x72E4, symBinAddr: 0x10000A6D4, symSize: 0x14 }
  - { offsetInCU: 0x106CB, offset: 0x106CB, size: 0x8, addend: 0x0, symName: __ZNSt3__16vectorIP4ConnNS_9allocatorIS2_EEEC2B8ue170006Ev, symObjAddr: 0x72F8, symBinAddr: 0x10000A6E8, symSize: 0x44 }
  - { offsetInCU: 0x106F4, offset: 0x106F4, size: 0x8, addend: 0x0, symName: __ZNSt3__117__compressed_pairIPP4ConnNS_9allocatorIS2_EEEC1B8ue170006IDnNS_18__default_init_tagEEEOT_OT0_, symObjAddr: 0x733C, symBinAddr: 0x10000A72C, symSize: 0x3C }
  - { offsetInCU: 0x1074B, offset: 0x1074B, size: 0x8, addend: 0x0, symName: __ZNSt3__117__compressed_pairIPP4ConnNS_9allocatorIS2_EEEC2B8ue170006IDnNS_18__default_init_tagEEEOT_OT0_, symObjAddr: 0x7378, symBinAddr: 0x10000A768, symSize: 0x40 }
  - { offsetInCU: 0x107A2, offset: 0x107A2, size: 0x8, addend: 0x0, symName: __ZNSt3__122__compressed_pair_elemINS_9allocatorIP4ConnEELi1ELb1EEC2B8ue170006ENS_18__default_init_tagE, symObjAddr: 0x73B8, symBinAddr: 0x10000A7A8, symSize: 0x2C }
  - { offsetInCU: 0x107D5, offset: 0x107D5, size: 0x8, addend: 0x0, symName: __ZNSt3__19allocatorIP4ConnEC2B8ue170006Ev, symObjAddr: 0x73E4, symBinAddr: 0x10000A7D4, symSize: 0x2C }
  - { offsetInCU: 0x107FE, offset: 0x107FE, size: 0x8, addend: 0x0, symName: __ZNSt3__116__non_trivial_ifILb1ENS_9allocatorIP4ConnEEEC2B8ue170006Ev, symObjAddr: 0x7410, symBinAddr: 0x10000A800, symSize: 0x14 }
  - { offsetInCU: 0x10827, offset: 0x10827, size: 0x8, addend: 0x0, symName: __ZNSt3__16vectorIP4ConnNS_9allocatorIS2_EEED2B8ue170006Ev, symObjAddr: 0x7424, symBinAddr: 0x10000A814, symSize: 0x3C }
  - { offsetInCU: 0x10850, offset: 0x10850, size: 0x8, addend: 0x0, symName: __ZNSt3__16vectorIP4ConnNS_9allocatorIS2_EEE16__destroy_vectorC1B8ue170006ERS5_, symObjAddr: 0x7460, symBinAddr: 0x10000A850, symSize: 0x34 }
  - { offsetInCU: 0x10888, offset: 0x10888, size: 0x8, addend: 0x0, symName: __ZNSt3__16vectorIP4ConnNS_9allocatorIS2_EEE16__destroy_vectorclB8ue170006Ev, symObjAddr: 0x7494, symBinAddr: 0x10000A884, symSize: 0x90 }
  - { offsetInCU: 0x108AD, offset: 0x108AD, size: 0x8, addend: 0x0, symName: __ZNSt3__16vectorIP4ConnNS_9allocatorIS2_EEE16__destroy_vectorC2B8ue170006ERS5_, symObjAddr: 0x7524, symBinAddr: 0x10000A914, symSize: 0x20 }
  - { offsetInCU: 0x108E5, offset: 0x108E5, size: 0x8, addend: 0x0, symName: __ZNSt3__16vectorIP4ConnNS_9allocatorIS2_EEE7__clearB8ue170006Ev, symObjAddr: 0x7544, symBinAddr: 0x10000A934, symSize: 0x28 }
  - { offsetInCU: 0x1090A, offset: 0x1090A, size: 0x8, addend: 0x0, symName: __ZNSt3__16vectorIP4ConnNS_9allocatorIS2_EEE11__make_iterB8ue170006EPS2_, symObjAddr: 0x756C, symBinAddr: 0x10000A95C, symSize: 0x30 }
  - { offsetInCU: 0x1093E, offset: 0x1093E, size: 0x8, addend: 0x0, symName: __ZNSt3__111__wrap_iterIPP4ConnEC1B8ue170006ES3_, symObjAddr: 0x759C, symBinAddr: 0x10000A98C, symSize: 0x34 }
  - { offsetInCU: 0x10975, offset: 0x10975, size: 0x8, addend: 0x0, symName: __ZNSt3__111__wrap_iterIPP4ConnEC2B8ue170006ES3_, symObjAddr: 0x75D0, symBinAddr: 0x10000A9C0, symSize: 0x20 }
  - { offsetInCU: 0x109AC, offset: 0x109AC, size: 0x8, addend: 0x0, symName: __ZNKSt3__111__wrap_iterIPP4ConnE4baseB8ue170006Ev, symObjAddr: 0x7638, symBinAddr: 0x10000AA28, symSize: 0x18 }
  - { offsetInCU: 0x1E, offset: 0x10C4D, size: 0x8, addend: 0x0, symName: __Z6h_scanP6HTablePFvP5HNodePvES3_, symObjAddr: 0x0, symBinAddr: 0x10000AAB4, symSize: 0xC8 }
  - { offsetInCU: 0x18D, offset: 0x10DBC, size: 0x8, addend: 0x0, symName: __Z6h_scanP6HTablePFvP5HNodePvES3_, symObjAddr: 0x0, symBinAddr: 0x10000AAB4, symSize: 0xC8 }
  - { offsetInCU: 0x20B, offset: 0x10E3A, size: 0x8, addend: 0x0, symName: __Z9hm_insertP4HMapP5HNode, symObjAddr: 0xC8, symBinAddr: 0x10000AB7C, symSize: 0xB4 }
  - { offsetInCU: 0x25E, offset: 0x10E8D, size: 0x8, addend: 0x0, symName: __ZL6h_initP6HTablem, symObjAddr: 0x17C, symBinAddr: 0x10000AC30, symSize: 0xB4 }
  - { offsetInCU: 0x295, offset: 0x10EC4, size: 0x8, addend: 0x0, symName: __ZL8h_insertP6HTableP5HNode, symObjAddr: 0x230, symBinAddr: 0x10000ACE4, symSize: 0x70 }
  - { offsetInCU: 0x2E8, offset: 0x10F17, size: 0x8, addend: 0x0, symName: __ZL17hm_start_resizingP4HMap, symObjAddr: 0x2A0, symBinAddr: 0x10000AD54, symSize: 0x90 }
  - { offsetInCU: 0x311, offset: 0x10F40, size: 0x8, addend: 0x0, symName: __ZL16hm_help_resizingP4HMap, symObjAddr: 0x330, symBinAddr: 0x10000ADE4, symSize: 0x144 }
  - { offsetInCU: 0x365, offset: 0x10F94, size: 0x8, addend: 0x0, symName: __Z9hm_lookupP4HMapP5HNodePFbS2_S2_E, symObjAddr: 0x474, symBinAddr: 0x10000AF28, symSize: 0xB4 }
  - { offsetInCU: 0x3BB, offset: 0x10FEA, size: 0x8, addend: 0x0, symName: __ZL8h_lookupP6HTableP5HNodePFbS2_S2_E, symObjAddr: 0x528, symBinAddr: 0x10000AFDC, symSize: 0xF4 }
  - { offsetInCU: 0x43D, offset: 0x1106C, size: 0x8, addend: 0x0, symName: __Z6hm_popP4HMapP5HNodePFbS2_S2_E, symObjAddr: 0x61C, symBinAddr: 0x10000B0D0, symSize: 0xB8 }
  - { offsetInCU: 0x4AF, offset: 0x110DE, size: 0x8, addend: 0x0, symName: __ZL8h_detachP6HTablePP5HNode, symObjAddr: 0x6D4, symBinAddr: 0x10000B188, symSize: 0x44 }
  - { offsetInCU: 0x4F8, offset: 0x11127, size: 0x8, addend: 0x0, symName: __Z7hm_sizeP4HMap, symObjAddr: 0x718, symBinAddr: 0x10000B1CC, symSize: 0x24 }
  - { offsetInCU: 0x524, offset: 0x11153, size: 0x8, addend: 0x0, symName: __Z10hm_destroyP4HMap, symObjAddr: 0x73C, symBinAddr: 0x10000B1F0, symSize: 0x60 }
...
